(dp1
S'output'
p2
S'missing "pass" in view'
p3
sS'layer'
p4
S'ParserContainer'
p5
sS'code'
p6
S'response.write(\'<!DOCTYPE html>\\n<html class="h-100" lang="pt-br">\\n  <head>\\n    <meta charset="UTF-8" />\\n    <meta\\n      name="viewport"\\n      content="width=device-width, initial-scale=1, shrink-to-fit=no"\\n    />\\n    <meta name="description" content="" />\\n    <meta name="author" content="" />\\n    <link rel="icon" href="../../../../favicon.ico" />\\n\\n    <title>Plano de Contas</title>\\n\\n    <!-- Bootstrap core CSS -->\\n    <link\\n      rel="stylesheet"\\n      href="https://stackpath.bootstrapcdn.com/bootstrap/4.3.1/css/bootstrap.min.css"\\n      integrity="sha384-ggOyR0iXCbMQv3Xipma34MD+dH/1fQ784/j6cY/iJTQUOhcWr7x9JvoRxT2MZw1T"\\n      crossorigin="anonymous"\\n    />\\n    <!-- Custom styles for this template -->\\n    <link href="\', escape=False)\nresponse.write(URL(\'static\',\'css/style.css\'))\nresponse.write(\'" rel="stylesheet" />\\n\\n    <link\\n      href="https://fonts.googleapis.com/css?family=Raleway:400,500&display=swap"\\n      rel="stylesheet"\\n    />\\n  </head>\\n\\n  <body>\\n    <nav class="navbar navbar-expand-lg navbar-light bg-azul mb-3">\\n      <div class="container">\\n        <a class="navbar-brand text-white" href="\', escape=False)\nresponse.write(URL(\'index\'))\nresponse.write(\'">Sistema</a>\\n        <button\\n          class="navbar-toggler"\\n          type="button"\\n          data-toggle="collapse"\\n          data-target="#navbarNavAltMarkup"\\n          aria-controls="navbarNavAltMarkup"\\n          aria-expanded="false"\\n          aria-label="Toggle navigation"\\n        >\\n          <span class="navbar-toggler-icon"></span>\\n        </button>\\n        <div\\n          class="collapse navbar-collapse justify-content-around"\\n          id="navbarNavAltMarkup"\\n        >\\n          <div class="navbar-nav">\\n            <a\\n              class="nav-item nav-link active text-white"\\n              href="\', escape=False)\nresponse.write(URL(\'index\'))\nresponse.write(\'"\\n              >Inicio <span class="sr-only">(current)</span></a\\n            >\\n            <a class="nav-item nav-link text-white" href="#">Perfil</a>\\n            <a\\n              class="nav-item nav-link text-white"\\n              href="\', escape=False)\nresponse.write(URL(\'plano_de_contas\'))\nresponse.write(\'"\\n              >Plano de Contas</a\\n            >\\n            <a\\n              class="nav-item nav-link text-white"\\n              href="\', escape=False)\nresponse.write(URL(\'lancamentos\'))\nresponse.write(\'"\\n              >Lan\\xc3\\xa7amentos</a\\n            >\\n            <a\\n              class="nav-item nav-link text-white"\\n              href="\', escape=False)\nresponse.write(URL(\'plano_de_contas\'))\nresponse.write(\'"\\n              >Fluxo de Caixa Di\\xc3\\xa1rio</a\\n            >\\n            <a class="nav-item nav-link text-white" href="#">Relat\\xc3\\xb3rio</a>\\n            <a class="nav-item nav-link text-white" href="#">Sair</a>\\n          </div>\\n        </div>\\n      </div>\\n    </nav>\\n\\n\\n    \', escape=False)\nresponse.write(\'\\n\\n<div class="container">\\n  <div class="row my-4">\\n    <div class="col-md-6">\\n      <h4 class="text-center">Lan\\xc3\\xa7amentos</h4>\\n    </div>\\n    <div class="col-md-6 text-center"><h4>Movimenta\\xc3\\xa7\\xc3\\xb5es</h4></div>\\n  </div>\\n\\n  <div class="row">\\n    <div class="col-md-12 col-lg-6 my-3">\\n    <!--\\n      <div class="form-group">\\n        <select class="custom-select" id="select-tipo-lancamento" required>\\n          <option selected value="">Escolha o tipo</option>\\n          \', escape=False)\nfor tipo in tipos:\n    response.write(\'\\n          <option value="\', escape=False)\n    response.write(tipo.tipo)\n    response.write(\'">\', escape=False)\n    response.write(tipo.tipo)\n    response.write(\'</option>\\n          \', escape=False)\n    pass\nresponse.write(\'\\n        </select>\\n      </div>\\n      <div class="input-group mb-3">\\n          <select\\n            class="custom-select"\\n            id="select-categoria-lancamento"\\n            required\\n          >\\n            <option selected value="">Escolha a categoria</option>\\n            \', escape=False)\nfor conta in contas:\n    response.write(\'\\n            \', escape=False)\n    for tipo in tipos:\n        response.write(\'\\n            \', escape=False)\n        if tipo.id == conta.tipo and not conta.conta_pai:\n            response.write(\'\\n            <option\\n              value="\', escape=False)\n            response.write(conta.descricao)\n            response.write(\'"\\n              data-tipo="\', escape=False)\n            response.write(tipo.tipo)\n            response.write(\'"\\n              >\', escape=False)\n            response.write(conta.descricao)\n            response.write(\'</option\\n            >\\n            \', escape=False)\n            pass\n        response.write(\'\\n            \', escape=False)\n        pass\n    response.write(\'\\n            \', escape=False)\n    pass\nresponse.write(\'\\n          </select>\\n      </div>\\n    -->\\n    \', escape=False)\nresponse.write(form)\nresponse.write(\'\\n  \\n    </div>\\n    <div class="col-md-12 col-lg-6 my-3 text-center">\\n      <div class="row mb-4">\\n        <div class="col-md-12">\\n          <div class="row">\\n            <div class="col"><h5>Saldo Atual</h5></div>\\n          </div>\\n          <div class="row">\\n            <div class="col"><h6>-2999.32</h6></div>\\n          </div>\\n        </div>\\n      </div>\\n      <div class="row">\\n        <div class="col"><h5>Hist\\xc3\\xb3rico</h5></div>\\n      </div>\\n\\n      <div class="row my-4">\\n        <div class="col-md-3">Valor</div>\\n        <div class="col-md-3">Conta</div>\\n        <div class="col-md-3">Data do Lan\\xc3\\xa7amento</div>\\n        <div class="col-md-3">Autor do Lan\\xc3\\xa7amento</div>\\n      </div>\\n      \', escape=False)\nfor lancament in lancamento:\n    response.write(\'\\n      <div class="row my-4">\\n        <div class="col-md-3">\\n          \', escape=False)\n    for conta in contas:\n        response.write(\'\\n            \', escape=False)\n        if conta.id==lancament.conta:\n            response.write(\'\\n              \', escape=False)\n            for contapai in contaspai:\n                response.write(\'\\n                \', escape=False)\n                if contapai.id == conta.conta_pai:\n                    response.write(\'\\n                  \', escape=False)\n                    if contapai.tipo == 3:\n                        response.write(\'\\n                  <span class="badge badge-danger">-</span>\\n                  \', escape=False)\n                    else:\n                        response.write(\'\\n                  <span class="badge badge-success">+</span>\\n                  \', escape=False)\n                        pass\n                    response.write(\'\\n                \', escape=False)\n                    pass\n                response.write(\'\\n              \', escape=False)\n                pass\n            response.write(\'\\n            \', escape=False)\n            pass\n        response.write(\'\\n          \', escape=False)\n        pass\n    response.write(\'\\n          R$\', escape=False)\n    response.write(lancament.valor)\n    response.write(\'\\n        </div>\\n        \', escape=False)\n    for conta in contas:\n        response.write(\'\\n        \', escape=False)\n        if conta.id == lancament.conta:\n            response.write(\'\\n        <div class="col-md-3">\', escape=False)\n            response.write(conta.descricao)\n            response.write(\'</div>\\n        \', escape=False)\n            pass\n        response.write(\'\\n        \', escape=False)\n        pass\n    response.write(\'\\n        <div class="col-md-3">\', escape=False)\n    response.write(lancament.data_registro)\n    response.write(\'</div>\\n        <div class="col-md-3">...</div>\\n      </div>\\n      \', escape=False)\n    pass\nresponse.write(\'\\n    </div>\\n  </div>\\n</div>\\n\', escape=False)\nresponse.write(\'\\n    <footer class="footer mt-auto py-3">\\n      <div class="container">\\n        <span class="text-muted">&copy; IFRN 2019</span>\\n      </div>\\n    </footer>\\n\\n    <!-- Bootstrap core JavaScript\\n    ================================================== -->\\n    <!-- Placed at the end of the document so the pages load faster -->\\n    <script\\n      type="text/javascript"\\n      src="\', escape=False)\nresponse.write(URL(\'static\',\'js/jquery.js\'))\nresponse.write(\'"\\n    ></script>\\n    <!--\\n      Jquery do Bootstrap\\n    <script src="https://code.jquery.com/jquery-3.2.1.slim.min.js" integrity="sha384-KJ3o2DKtIkvYIK3UENzmM7KCkRr/rE9/Qpg6aAZGJwFDMVNA/GpGFF93hXpG5KkN" crossorigin="anonymous"></script>\\n    -->\\n\\n    <script>\\n      \\n      $(document).ready(function() {\\n        \\n        //SELECT do form lan\\xc3\\xa7amento\\n        /*$("#select-tipo-lancamento").on("change", function() {\\n          var tipo = this.value;\\n          $("#select-categoria-lancamento option").each(function() {\\n            var $this = $(this);\\n            if ($this.data("tipo") == tipo) $this.show();\\n            else $this.hide();\\n          });\\n        });\\n        $("#select-categoria-lancamento").on("change", function() {\\n          var categoria = this.value;\\n          $("#lancamento_conta option").each(function() {\\n            var $this = $(this);\\n            \', escape=False)\nfor conta in contas:\n    response.write(\'\\n            \', escape=False)\n    response.write()\n    response.write(\'$thi \\n            if ($this.data("categoria") == categoria) $this.show();\\n            else $this.hide();\\n          });\\n        });\\n        */\\n        $("#select-tipo-cadastro").on("change", function() {\\n          var tipocadastro;\\n          $("#select-tipo").on("change", function() {\\n            var tipo = this.value;\\n            if (tipo == "conta") {\\n              $(".fg-categoria-cadastro").show();\\n              $(".fg-descricao-cadastro").hide();\\n              $("#form-select-categoria-lancamento").hide();\\n              tipocadastro = 0;\\n            } else {\\n              $(".fg-categoria-cadastro").hide();\\n              $(".fg-descricao-cadastro").show();\\n              $("#form-select-categoria-lancamento").show();\\n              tipocadastro = 1;\\n            }\\n          });\\n        });\\n        \\n        //abri cadastro plano de contas \\n        $(\\\'#abrir-cadastrar-receita\\\').on("click", function() {\\n          $(\\\'#label-criar-classificacao\\\').text("Cadastrar nova receita");\\n          $(\\\'input:hidden[name=tipo]\\\').val("4");\\n        })\\n        $(\\\'#abrir-cadastrar-despesa\\\').on("click", function() {\\n          $(\\\'#label-criar-classificacao\\\').text("Cadastrar nova despesa");\\n          $(\\\'input:hidden[name=tipo]\\\').val("3");\\n        })\\n        //abrir cadastro itens\\n        $(\\\'.abrir-cadastrar-receita-item\\\').on("click", function() {\\n          var conta_pai = $(this).data(\\\'conta_pai\\\');\\n          console.log(conta_pai)\\n          $(\\\'#label-criar-classificacao\\\').text("Cadastrar nova receita");\\n          $(\\\'input:hidden[name=tipo]\\\').val("4");\\n          $(\\\'input:hidden[name=conta_pai]\\\').val(conta_pai);\\n        })\\n        $(\\\'.abrir-cadastrar-despesa-item\\\').on("click", function() {\\n          var conta_pai = $(this).data(\\\'conta_pai\\\');\\n          console.log(conta_pai)\\n          $(\\\'#label-criar-classificacao\\\').text("Cadastrar nova despesa");\\n          $(\\\'input:hidden[name=tipo]\\\').val("3");\\n          $(\\\'input:hidden[name=conta_pai]\\\').val(conta_pai);\\n        })\\n\\n        //debug\\n        $(\\\'#option-conta-lancamento\\\').each(function(){\\n          console.log($(this).val);\\n        })\\n\\n        //lancamento personaliza\\xc3\\xa7\\xc3\\xa3o do form\\n        var coluna_botao = $(\\\'#submit_record__row\\\').children();\\n        coluna_botao.removeClass(\\\'col-sm-9 col-sm-offset-3\\\').addClass(\\\'col-md-12\\\');\\n        coluna_botao.children().addClass(\\\'btn-lg btn-block\\\');\\n        coluna_botao.children().val(\\\'Salvar\\\');\\n     \\n\\n      });\\n    </script>\\n    <script>\\n      window.jQuery ||\\n        document.write(\\n          \\\'<script src="../../../../assets/js/vendor/jquery-slim.min.js"><\\\\/script>\\\'\\n        );\\n    </script>\\n   \\n    <script\\n      src="https://cdnjs.cloudflare.com/ajax/libs/popper.js/1.14.7/umd/popper.min.js"\\n      integrity="sha384-UO2eT0CpHqdSJQ6hJty5KVphtPhzWj9WO1clHTMGa3JDZwrnQq4sF86dIHNDz0W1"\\n      crossorigin="anonymous"\\n    ></script>\\n    <script\\n      src="https://stackpath.bootstrapcdn.com/bootstrap/4.3.1/js/bootstrap.min.js"\\n      integrity="sha384-JjSmVgyd0p3pXB1rRibZUAYoIIy6OrQ6VrjIEaFf/nJGzIxFDsf4x0xIM+B07jRM"\\n      crossorigin="anonymous"\\n    ></script>\\n  </body>\\n</html>\', escape=False)'
p7
sS'snapshot'
p8
(dp9
S'exception'
p10
(dp11
S'__module__'
p12
S"'gluon.rocket'"
p13
sS'__getslice__'
p14
S"<method-wrapper '__getslice__' of SocketTimeout object>"
p15
sS'__str__'
p16
S"<method-wrapper '__str__' of SocketTimeout object>"
p17
sS'__reduce__'
p18
S'<built-in method __reduce__ of SocketTimeout object>'
p19
sS'__dict__'
p20
S'{}'
p21
sS'__sizeof__'
p22
S'<built-in method __sizeof__ of SocketTimeout object>'
p23
sS'__weakref__'
p24
S'None'
p25
sS'message'
p26
S"'Socket timed out before request.'"
p27
sS'__init__'
p28
S"<method-wrapper '__init__' of SocketTimeout object>"
p29
sS'__setattr__'
p30
S"<method-wrapper '__setattr__' of SocketTimeout object>"
p31
sS'__reduce_ex__'
p32
S'<built-in method __reduce_ex__ of SocketTimeout object>'
p33
sS'__new__'
p34
S'<built-in method __new__ of type object>'
p35
sS'__format__'
p36
S'<built-in method __format__ of SocketTimeout object>'
p37
sS'__class__'
p38
S"<class 'gluon.rocket.SocketTimeout'>"
p39
sS'__doc__'
p40
S"'Exception for when a socket times out between requests.'"
p41
sS'__getitem__'
p42
S"<method-wrapper '__getitem__' of SocketTimeout object>"
p43
sS'__setstate__'
p44
S'<built-in method __setstate__ of SocketTimeout object>'
p45
sS'__getattribute__'
p46
S"<method-wrapper '__getattribute__' of SocketTimeout object>"
p47
sS'args'
p48
S"('Socket timed out before request.',)"
p49
sS'__subclasshook__'
p50
S'<built-in method __subclasshook__ of type object>'
p51
sS'__unicode__'
p52
S'<built-in method __unicode__ of SocketTimeout object>'
p53
sS'__delattr__'
p54
S"<method-wrapper '__delattr__' of SocketTimeout object>"
p55
sS'__repr__'
p56
S"<method-wrapper '__repr__' of SocketTimeout object>"
p57
sS'__hash__'
p58
S"<method-wrapper '__hash__' of SocketTimeout object>"
p59
ssS'evalue'
p60
S'Socket timed out before request.'
p61
sS'frames'
p62
(lp63
(dp64
S'file'
p65
S'E:\\Usu\xe1rios\\20141044110173\\Desktop\\web2py\\gluon\\rocket.py'
p66
sS'dump'
p67
(dp68
S'self'
p69
S'<WSGIWorker(Thread-4, started daemon 4252)>'
p70
sS'conn'
p71
S'<gluon.rocket.Connection object>'
p72
sS'self.run_app'
p73
S'<bound method WSGIWorker.run_app of <WSGIWorker(Thread-4, started daemon 4252)>>'
p74
ssS'lnum'
p75
I1288
sS'lines'
p76
(dp77
I1283
S'            # Enter connection serve loop'
p78
sI1284
S'            while True:'
p79
sI1285
S'                if __debug__:'
p80
sI1286
S"                    self.err_log.debug('Serving a request')"
p81
sI1287
S'                try:'
p82
sI1288
S'                    self.run_app(conn)'
p83
sI1289
S'                except:'
p84
sI1290
S'                    exc = sys.exc_info()'
p85
sI1291
S'                    handled = self._handleError(*exc)'
p86
sI1292
S'                    if handled:'
p87
ssS'call'
p88
S'(self=<WSGIWorker(Thread-4, started daemon 4252)>)'
p89
sS'func'
p90
S'run'
p91
sa(dp92
g65
S'E:\\Usu\xe1rios\\20141044110173\\Desktop\\web2py\\gluon\\rocket.py'
p93
sg67
(dp94
S'self'
p95
S'<WSGIWorker(Thread-4, started daemon 4252)>'
p96
sS'self.environ'
p97
S"{'HTTP_ACCEPT': 'text/html,application/xhtml+xml,application/xml;...e/apng,*/*;q=0.8,application/signed-exchange;v=b3', 'HTTP_ACCEPT_ENCODING': 'gzip, deflate, br', 'HTTP_ACCEPT_LANGUAGE': 'pt-BR,pt;q=0.9,en-US;q=0.8,en;q=0.7', 'HTTP_CACHE_CONTROL': 'max-age=0', 'HTTP_CONNECTION': 'keep-alive', 'HTTP_COOKIE': 'session_id_admin=127.0.0.1-8408e69b-48db-4ec6-a9...as=127.0.0.1-14eb187c-5fdd-475a-b1f2-ae3f3c1e21cc', 'HTTP_HOST': '127.0.0.1:8000', 'HTTP_REFERER': 'http://127.0.0.1:8000/sistema_plano_de_contas/default/lancamentos', 'HTTP_UPGRADE_INSECURE_REQUESTS': '1', 'HTTP_USER_AGENT': 'Mozilla/5.0 (Linux; Android 6.0; Nexus 5 Build/M... Gecko) Chrome/74.0.3729.169 Mobile Safari/537.36', ...}"
p98
sS'sock_file'
p99
S'<socket._fileobject object>'
p100
sS'environ'
p101
S'undefined'
p102
sS'self.build_environ'
p103
S'<bound method WSGIWorker.build_environ of <WSGIWorker(Thread-4, started daemon 4252)>>'
p104
sS'conn'
p105
S'<gluon.rocket.Connection object>'
p106
ssg75
I1781
sg76
(dp107
I1776
S'        else:'
p108
sI1777
S'            sock_file = conn.makefile(BUF_SIZE)'
p109
sI1778
S''
sI1779
S'        try:'
p110
sI1780
S'            # Read the headers and build our WSGI environment'
p111
sI1781
S'            self.environ = environ = self.build_environ(sock_file, conn)'
p112
sI1782
S''
sI1783
S'            # Handle 100 Continue'
p113
sI1784
S"            if environ.get('HTTP_EXPECT', '') == '100-continue':"
p114
sI1785
S"                res = environ['SERVER_PROTOCOL'] + ' 100 Continue\\r\\n\\r\\n'"
p115
ssg88
S'(self=<WSGIWorker(Thread-4, started daemon 4252)>, conn=<gluon.rocket.Connection object>)'
p116
sg90
S'run_app'
p117
sa(dp118
g65
S'E:\\Usu\xe1rios\\20141044110173\\Desktop\\web2py\\gluon\\rocket.py'
p119
sg67
(dp120
S'sock_file'
p121
S'<socket._fileobject object>'
p122
sS'self.read_request_line'
p123
S'<bound method WSGIWorker.read_request_line of <WSGIWorker(Thread-4, started daemon 4252)>>'
p124
sS'self'
p125
S'<WSGIWorker(Thread-4, started daemon 4252)>'
p126
sS'request'
p127
g102
ssg75
I1601
sg76
(dp128
I1600
S'        # Grab the request line'
p129
sI1601
S'        request = self.read_request_line(sock_file)'
p130
sI1602
S''
sI1603
S'        # Copy the Base Environment'
p131
sI1604
S'        environ = self.base_environ.copy()'
p132
sI1605
S''
sI1596
S'                                      "wsgiorg.futures": executor.futures})'
p133
sI1597
S''
sI1598
S'    def build_environ(self, sock_file, conn):'
p134
sI1599
S'        """ Build the execution environment. """'
p135
ssg88
S'(self=<WSGIWorker(Thread-4, started daemon 4252)>, sock_file=<socket._fileobject object>, conn=<gluon.rocket.Connection object>)'
p136
sg90
S'build_environ'
p137
sa(dp138
g65
S'E:\\Usu\xe1rios\\20141044110173\\Desktop\\web2py\\gluon\\rocket.py'
p139
sg67
(dp140
S'global SocketTimeout'
p141
S"<class 'gluon.rocket.SocketTimeout'>"
p142
ssg75
I1352
sg76
(dp143
I1347
S''
sI1348
S'                d = sock_file.readline()'
p144
sI1349
S'                if PY3K:'
p145
sI1350
S"                    d = d.decode('ISO-8859-1')"
p146
sI1351
S'        except socket.timeout:'
p147
sI1352
S"            raise SocketTimeout('Socket timed out before request.')"
p148
sI1353
S'        except TypeError:'
p149
sI1354
S'            raise SocketClosed('
p150
sI1355
S"                'SSL bug caused closure of socket.  See '"
p151
sI1356
S'                \'"https://groups.google.com/d/topic/web2py/P_Gw0JxWzCs".\')'
p152
ssg88
S'(self=<WSGIWorker(Thread-4, started daemon 4252)>, sock_file=<socket._fileobject object>)'
p153
sg90
S'read_request_line'
p154
sasS'pyver'
p155
S'Python 2.7.9: E:\\Usu\xe1rios\\20141044110173\\Desktop\\web2py\\web2py.exe (prefix: C:\\Python27)'
p156
sS'etype'
p157
S"<class 'gluon.rocket.SocketTimeout'>"
p158
sS'date'
p159
S'Tue Jun 18 16:07:43 2019'
p160
sS'locals'
p161
(dp162
S'sock_file'
p163
S'<socket._fileobject object>'
p164
sS'self'
p165
S'<WSGIWorker(Thread-4, started daemon 4252)>'
p166
sssS'traceback'
p167
S'Traceback (most recent call last):\n  File "E:\\Usu\xe1rios\\20141044110173\\Desktop\\web2py\\gluon\\rocket.py", line 1288, in run\n    self.run_app(conn)\n  File "E:\\Usu\xe1rios\\20141044110173\\Desktop\\web2py\\gluon\\rocket.py", line 1781, in run_app\n    self.environ = environ = self.build_environ(sock_file, conn)\n  File "E:\\Usu\xe1rios\\20141044110173\\Desktop\\web2py\\gluon\\rocket.py", line 1601, in build_environ\n    request = self.read_request_line(sock_file)\n  File "E:\\Usu\xe1rios\\20141044110173\\Desktop\\web2py\\gluon\\rocket.py", line 1352, in read_request_line\n    raise SocketTimeout(\'Socket timed out before request.\')\nSocketTimeout: Socket timed out before request.\n'
p168
s.