(dp1
S'output'
p2
S'missing "pass" in view'
p3
sS'layer'
p4
S'ParserContainer'
p5
sS'code'
p6
S'response.write(\'<!doctype html>\\n<html lang="pt-br">\\n  <head>\\n    <meta charset="utf-8">\\n    <meta name="viewport" content="width=device-width, initial-scale=1, shrink-to-fit=no">\\n    <meta name="description" content="">\\n    <meta name="author" content="">\\n    <link rel="icon" href="../../../../favicon.ico">\\n\\n    <title>Plano de Contas</title>\\n\\n    <!-- Bootstrap core CSS -->\\n    <link href="\', escape=False)\nresponse.write(URL(\'static\',\'css/bootstrap.min.css\'))\nresponse.write(\'" rel="stylesheet">\\n\\n    <!-- Custom styles for this template -->\\n    <link href="\', escape=False)\nresponse.write(URL(\'static\',\'css/style.css\'))\nresponse.write(\'" rel="stylesheet">\\n  </head>\\n\\n  <body>\\n\\n    <nav class="navbar navbar-expand-lg navbar-light bg-azul-claro">\\n      <div class="container">\\n        <a class="navbar-brand text-black" href="#">Sistema</a>\\n        <button class="navbar-toggler" type="button" data-toggle="collapse" data-target="#navbarNavAltMarkup" aria-controls="navbarNavAltMarkup" aria-expanded="false" aria-label="Toggle navigation">\\n          <span class="navbar-toggler-icon"></span>\\n        </button>\\n        <div class="collapse navbar-collapse" id="navbarNavAltMarkup">\\n          <div class="navbar-nav">\\n            <a class="nav-item nav-link active text-black" href="#">Home <span class="sr-only">(current)</span></a>\\n            <a class="nav-item nav-link text-black" href="#">Plano de Contas</a>\\n            <a class="nav-item nav-link text-black" href="#">Minha Conta</a>\\n            <a class="nav-item nav-link text-black" href="#">Sair</a>\\n          </div>\\n        </div>\\n      </div>\\n      \\n    </nav>\\n    \', escape=False)\nresponse.write(\'\\n\\n<div class="container-fluid ">\\n\\t<div class="container">\\n\\t\\t<div class="row justify-content-center my-3">\\n\\t\\t\\t<div class="col-md-5 text-center "><h3 class="">Plano de Contas</h3></div>\\n\\t\\t</div>\\n\\t</div>\\n</div>\\n<div class="container-fluid bg-azul">\\n\\t<div class=\\\'container py-4\\\'>\\n\\t\\t\\n\\t\\t<div class="row ">\\n\\t\\t\\t<div class="col-md-3 ">\\n\\t\\t\\t\\t<h4 class="text-dark text-center h-100 rounded bg-white">Descri\\xc3\\xa7\\xc3\\xa3o</h4>\\n\\t\\t\\t</div>\\n\\t\\t\\t<div class="col-md-3 ">\\n\\t\\t\\t\\t<h4 class="text-dark text-center h-100 rounded bg-white">Tipo</h4>\\n\\t\\t\\t</div>\\n\\t\\t\\t<div class="col-md-3 ">\\n\\t\\t\\t\\t<h4 class="text-dark text-center h-100 rounded bg-white">Pai</h4>\\n\\t\\t\\t</div>\\n\\t\\t\\t<div class="col-md-3 ">\\n\\t\\t\\t\\t<h4 class="text-dark text-center h-100 rounded bg-white">A\\xc3\\xa7\\xc3\\xb5es</h4>\\n\\t\\t\\t</div>\\n\\t\\t</div>\\n\\t\\t\', escape=False)\nfor conta in contas:\n    response.write(\'\\n\\t\\t<div class="row my-3">\\n\\t\\t\\t<div class="col-md-3 ">\\n\\t\\t\\t\\t<h6 class="align-middle .text-center text-white ">\', escape=False)\n    response.write(A(conta.descricao, _href=URL(\'default\',\'conta\',args=conta.id),_class=\'text-white\'))\n    response.write(\'</h6>\\n\\t\\t\\t</div>\\n\\t\\t\\t<div class="col-md-3 ">\\n\\t\\t\\t\\t<h6 class="text-center text-white">\', escape=False)\n    response.write(conta.tipo.tipo)\n    response.write(\'</h6>\\n\\t\\t\\t</div>\\n\\t\\t\\t<div class="col-md-2 ">\\n\\t\\t\\t\\t<h6 class="align-middle text-center text-white ">\\n\\t\\t\\t\\t\\t\', escape=False)\n    for row in db(db.contas.id==conta.conta_pai).select():\n        response.write(\'\\n\\t\\t\\t\\t\\n\\t\\t\\t\\t\\t\', escape=False)\n        response.write(row)\n        response.write(\'\\n\\n\\t\\t\\t\\t</h6>\\n\\t\\t\\t</div>\\n\\t\\t\\t<div class="col-md-2">\\n\\t\\t\\t\\t<h6 class="align-middle text-center text-white ">\\n\\t\\t\\t\\t\\t\', escape=False)\n        response.write(conta.id)\n        response.write(\'\\n\\t\\t\\t\\t</h6>\\n\\t\\t\\t</div>\\n\\t\\t\\t<div class="col-md-2 text-center">\\n\\t\\t\\t\\t<div class="btn-group" role="group" aria-label="Basic example">\\n\\t\\t\\t\\t  <button type="button" class="btn bg-azul-claro text-white">Editar</button>\\n\\t\\t\\t\\t  <button type="button" class="btn bg-azul-claro text-white">Excluir</button>\\n\\t\\t\\t\\t</div>\\n\\t\\t\\t</div>\\n\\t\\t</div>\\n\\t\\t\', escape=False)\n        pass\n    response.write(\'\\n\\t</div>\\n</div>\\n\\n\\n\\t\\n\\t\\n\\n\\n\\t\\n\', escape=False)\n    response.write(\'\\n\\n    <footer class="container">\\n      <p>&copy; IFRN 2019</p>\\n    </footer>\\n  \\n    <!-- Bootstrap core JavaScript\\n    ================================================== -->\\n    <!-- Placed at the end of the document so the pages load faster -->\\n    <script type="text/javascript" src="\', escape=False)\n    response.write(URL(\'static\',\'js/jquery.js\'))\n    response.write(\'"></script>\\n    <!--\\n      Jquery do Bootstrap\\n    <script src="https://code.jquery.com/jquery-3.2.1.slim.min.js" integrity="sha384-KJ3o2DKtIkvYIK3UENzmM7KCkRr/rE9/Qpg6aAZGJwFDMVNA/GpGFF93hXpG5KkN" crossorigin="anonymous"></script>\\n    -->\\n    <script>window.jQuery || document.write(\\\'<script src="../../../../assets/js/vendor/jquery-slim.min.js"><\\\\/script>\\\')</script>\\n\\n    <script src="\', escape=False)\n    response.write(URL(\'static\',\'js/popper.min.js\'))\n    response.write(\'"></script>\\n    \\n    <script src="\', escape=False)\n    response.write(URL(\'static\',\'js/bootstrap.min.js\'))\n    response.write(\'"></script>\\n  </body>\\n</html>\\n\', escape=False)'
p7
sS'snapshot'
p8
(dp9
S'exception'
p10
(dp11
S'__module__'
p12
S"'gluon.rocket'"
p13
sS'__getslice__'
p14
S"<method-wrapper '__getslice__' of SocketTimeout object>"
p15
sS'__str__'
p16
S"<method-wrapper '__str__' of SocketTimeout object>"
p17
sS'__reduce__'
p18
S'<built-in method __reduce__ of SocketTimeout object>'
p19
sS'__dict__'
p20
S'{}'
p21
sS'__sizeof__'
p22
S'<built-in method __sizeof__ of SocketTimeout object>'
p23
sS'__weakref__'
p24
S'None'
p25
sS'message'
p26
S"'Socket timed out before request.'"
p27
sS'__init__'
p28
S"<method-wrapper '__init__' of SocketTimeout object>"
p29
sS'__setattr__'
p30
S"<method-wrapper '__setattr__' of SocketTimeout object>"
p31
sS'__reduce_ex__'
p32
S'<built-in method __reduce_ex__ of SocketTimeout object>'
p33
sS'__new__'
p34
S'<built-in method __new__ of type object>'
p35
sS'__format__'
p36
S'<built-in method __format__ of SocketTimeout object>'
p37
sS'__class__'
p38
S"<class 'gluon.rocket.SocketTimeout'>"
p39
sS'__doc__'
p40
S"'Exception for when a socket times out between requests.'"
p41
sS'__getitem__'
p42
S"<method-wrapper '__getitem__' of SocketTimeout object>"
p43
sS'__setstate__'
p44
S'<built-in method __setstate__ of SocketTimeout object>'
p45
sS'__getattribute__'
p46
S"<method-wrapper '__getattribute__' of SocketTimeout object>"
p47
sS'args'
p48
S"('Socket timed out before request.',)"
p49
sS'__subclasshook__'
p50
S'<built-in method __subclasshook__ of type object>'
p51
sS'__unicode__'
p52
S'<built-in method __unicode__ of SocketTimeout object>'
p53
sS'__delattr__'
p54
S"<method-wrapper '__delattr__' of SocketTimeout object>"
p55
sS'__repr__'
p56
S"<method-wrapper '__repr__' of SocketTimeout object>"
p57
sS'__hash__'
p58
S"<method-wrapper '__hash__' of SocketTimeout object>"
p59
ssS'evalue'
p60
S'Socket timed out before request.'
p61
sS'frames'
p62
(lp63
(dp64
S'file'
p65
S'/home/dep-isaac/Documents/Assets/web2py/gluon/rocket.py'
p66
sS'dump'
p67
(dp68
S'self'
p69
S'<WSGIWorker(Thread-35, started daemon 140323317589760)>'
p70
sS'conn'
p71
S'<gluon.rocket.Connection object>'
p72
sS'self.run_app'
p73
S'<bound method WSGIWorker.run_app of <WSGIWorker(Thread-35, started daemon 140323317589760)>>'
p74
ssS'lnum'
p75
I1288
sS'lines'
p76
(dp77
I1283
S'            # Enter connection serve loop'
p78
sI1284
S'            while True:'
p79
sI1285
S'                if __debug__:'
p80
sI1286
S"                    self.err_log.debug('Serving a request')"
p81
sI1287
S'                try:'
p82
sI1288
S'                    self.run_app(conn)'
p83
sI1289
S'                except:'
p84
sI1290
S'                    exc = sys.exc_info()'
p85
sI1291
S'                    handled = self._handleError(*exc)'
p86
sI1292
S'                    if handled:'
p87
ssS'call'
p88
S'(self=<WSGIWorker(Thread-35, started daemon 140323317589760)>)'
p89
sS'func'
p90
S'run'
p91
sa(dp92
g65
S'/home/dep-isaac/Documents/Assets/web2py/gluon/rocket.py'
p93
sg67
(dp94
S'self'
p95
S'<WSGIWorker(Thread-35, started daemon 140323317589760)>'
p96
sS'self.environ'
p97
S"{'HTTP_ACCEPT': 'text/html,application/xhtml+xml,application/xml;q=0.9,*/*;q=0.8', 'HTTP_ACCEPT_ENCODING': 'gzip, deflate', 'HTTP_ACCEPT_LANGUAGE': 'pt-BR,pt;q=0.8,en-US;q=0.5,en;q=0.3', 'HTTP_CACHE_CONTROL': 'max-age=0', 'HTTP_CONNECTION': 'keep-alive', 'HTTP_COOKIE': 'session_id_welcome=127.0.0.1-22ca7c78-233c-474d-...as=127.0.0.1-f2552274-9364-4e3f-96c5-ce5a882be7a1', 'HTTP_HOST': '127.0.0.1:8000', 'HTTP_UPGRADE_INSECURE_REQUESTS': '1', 'HTTP_USER_AGENT': 'Mozilla/5.0 (X11; Linux x86_64; rv:60.0) Gecko/20100101 Firefox/60.0', 'PATH_INFO': '/sistema_plano_de_contas/default/plano_de_contas', ...}"
p98
sS'sock_file'
p99
S'<socket._fileobject object>'
p100
sS'environ'
p101
S'undefined'
p102
sS'self.build_environ'
p103
S'<bound method WSGIWorker.build_environ of <WSGIWorker(Thread-35, started daemon 140323317589760)>>'
p104
sS'conn'
p105
S'<gluon.rocket.Connection object>'
p106
ssg75
I1781
sg76
(dp107
I1776
S'        else:'
p108
sI1777
S'            sock_file = conn.makefile(BUF_SIZE)'
p109
sI1778
S''
sI1779
S'        try:'
p110
sI1780
S'            # Read the headers and build our WSGI environment'
p111
sI1781
S'            self.environ = environ = self.build_environ(sock_file, conn)'
p112
sI1782
S''
sI1783
S'            # Handle 100 Continue'
p113
sI1784
S"            if environ.get('HTTP_EXPECT', '') == '100-continue':"
p114
sI1785
S"                res = environ['SERVER_PROTOCOL'] + ' 100 Continue\\r\\n\\r\\n'"
p115
ssg88
S'(self=<WSGIWorker(Thread-35, started daemon 140323317589760)>, conn=<gluon.rocket.Connection object>)'
p116
sg90
S'run_app'
p117
sa(dp118
g65
S'/home/dep-isaac/Documents/Assets/web2py/gluon/rocket.py'
p119
sg67
(dp120
S'sock_file'
p121
S'<socket._fileobject object>'
p122
sS'self.read_request_line'
p123
S'<bound method WSGIWorker.read_request_line of <W...rker(Thread-35, started daemon 140323317589760)>>'
p124
sS'self'
p125
S'<WSGIWorker(Thread-35, started daemon 140323317589760)>'
p126
sS'request'
p127
g102
ssg75
I1601
sg76
(dp128
I1600
S'        # Grab the request line'
p129
sI1601
S'        request = self.read_request_line(sock_file)'
p130
sI1602
S''
sI1603
S'        # Copy the Base Environment'
p131
sI1604
S'        environ = self.base_environ.copy()'
p132
sI1605
S''
sI1596
S'                                      "wsgiorg.futures": executor.futures})'
p133
sI1597
S''
sI1598
S'    def build_environ(self, sock_file, conn):'
p134
sI1599
S'        """ Build the execution environment. """'
p135
ssg88
S'(self=<WSGIWorker(Thread-35, started daemon 140323317589760)>, sock_file=<socket._fileobject object>, conn=<gluon.rocket.Connection object>)'
p136
sg90
S'build_environ'
p137
sa(dp138
g65
S'/home/dep-isaac/Documents/Assets/web2py/gluon/rocket.py'
p139
sg67
(dp140
S'global SocketTimeout'
p141
S"<class 'gluon.rocket.SocketTimeout'>"
p142
ssg75
I1352
sg76
(dp143
I1347
S''
sI1348
S'                d = sock_file.readline()'
p144
sI1349
S'                if PY3K:'
p145
sI1350
S"                    d = d.decode('ISO-8859-1')"
p146
sI1351
S'        except socket.timeout:'
p147
sI1352
S"            raise SocketTimeout('Socket timed out before request.')"
p148
sI1353
S'        except TypeError:'
p149
sI1354
S'            raise SocketClosed('
p150
sI1355
S"                'SSL bug caused closure of socket.  See '"
p151
sI1356
S'                \'"https://groups.google.com/d/topic/web2py/P_Gw0JxWzCs".\')'
p152
ssg88
S'(self=<WSGIWorker(Thread-35, started daemon 140323317589760)>, sock_file=<socket._fileobject object>)'
p153
sg90
S'read_request_line'
p154
sasS'pyver'
p155
S'Python 2.7.15: /usr/bin/python (prefix: /usr)'
p156
sS'etype'
p157
S"<class 'gluon.rocket.SocketTimeout'>"
p158
sS'date'
p159
S'Sat May 18 02:07:47 2019'
p160
sS'locals'
p161
(dp162
S'sock_file'
p163
S'<socket._fileobject object>'
p164
sS'self'
p165
S'<WSGIWorker(Thread-35, started daemon 140323317589760)>'
p166
sssS'traceback'
p167
S'Traceback (most recent call last):\n  File "/home/dep-isaac/Documents/Assets/web2py/gluon/rocket.py", line 1288, in run\n    self.run_app(conn)\n  File "/home/dep-isaac/Documents/Assets/web2py/gluon/rocket.py", line 1781, in run_app\n    self.environ = environ = self.build_environ(sock_file, conn)\n  File "/home/dep-isaac/Documents/Assets/web2py/gluon/rocket.py", line 1601, in build_environ\n    request = self.read_request_line(sock_file)\n  File "/home/dep-isaac/Documents/Assets/web2py/gluon/rocket.py", line 1352, in read_request_line\n    raise SocketTimeout(\'Socket timed out before request.\')\nSocketTimeout: Socket timed out before request.\n'
p168
s.