(dp1
S'output'
p2
S"<type 'exceptions.ValueError'> invalid literal for long() with base 10: 'conta.conta_pai'"
p3
sS'layer'
p4
S'/home/dep-isaac/Documents/Assets/web2py/applications/sistema_plano_de_contas/views/default/plano_de_contas.html'
p5
sS'code'
p6
S'response.write(\'<!doctype html>\\n<html lang="pt-br">\\n  <head>\\n    <meta charset="utf-8">\\n    <meta name="viewport" content="width=device-width, initial-scale=1, shrink-to-fit=no">\\n    <meta name="description" content="">\\n    <meta name="author" content="">\\n    <link rel="icon" href="../../../../favicon.ico">\\n\\n    <title>Plano de Contas</title>\\n\\n    <!-- Bootstrap core CSS -->\\n    <link href="\', escape=False)\nresponse.write(URL(\'static\',\'css/bootstrap.min.css\'))\nresponse.write(\'" rel="stylesheet">\\n\\n    <!-- Custom styles for this template -->\\n    <link href="\', escape=False)\nresponse.write(URL(\'static\',\'css/style.css\'))\nresponse.write(\'" rel="stylesheet">\\n  </head>\\n\\n  <body>\\n\\n    <nav class="navbar navbar-expand-lg navbar-light bg-azul-claro">\\n      <div class="container">\\n        <a class="navbar-brand text-black" href="#">Sistema</a>\\n        <button class="navbar-toggler" type="button" data-toggle="collapse" data-target="#navbarNavAltMarkup" aria-controls="navbarNavAltMarkup" aria-expanded="false" aria-label="Toggle navigation">\\n          <span class="navbar-toggler-icon"></span>\\n        </button>\\n        <div class="collapse navbar-collapse" id="navbarNavAltMarkup">\\n          <div class="navbar-nav">\\n            <a class="nav-item nav-link active text-black" href="#">Home <span class="sr-only">(current)</span></a>\\n            <a class="nav-item nav-link text-black" href="#">Plano de Contas</a>\\n            <a class="nav-item nav-link text-black" href="#">Minha Conta</a>\\n            <a class="nav-item nav-link text-black" href="#">Sair</a>\\n          </div>\\n        </div>\\n      </div>\\n      \\n    </nav>\\n    \', escape=False)\nresponse.write(\'\\n\\n<div class="container-fluid ">\\n\\t<div class="container">\\n\\t\\t<div class="row justify-content-center">\\n\\t\\t\\t<div class="col-md-5 text-center "><h1 class="">Plano de Contas</h1></div>\\n\\t\\t</div>\\n\\t</div>\\n</div>\\n<div class="container-fluid bg-azul">\\n\\t<div class=\\\'container py-4\\\'>\\n\\t\\t\\n\\t\\t<div class="row ">\\n\\t\\t\\t<div class="col-md-3 ">\\n\\t\\t\\t\\t<h4 class="text-dark text-center h-100 rounded bg-white">Descri\\xc3\\xa7\\xc3\\xa3o</h4>\\n\\t\\t\\t</div>\\n\\t\\t\\t<div class="col-md-3 ">\\n\\t\\t\\t\\t<h4 class="text-dark text-center h-100 rounded bg-white"s>Tipo</h4>\\n\\t\\t\\t</div>\\n\\t\\t\\t<div class="col-md-3 ">\\n\\t\\t\\t\\t<h4 class="text-dark text-center h-100 rounded bg-white">Pai</h4>\\n\\t\\t\\t</div>\\n\\t\\t\\t<div class="col-md-3 ">\\n\\t\\t\\t\\t<h4 class="text-dark text-center h-100 rounded bg-white">A\\xc3\\xa7\\xc3\\xb5es</h4>\\n\\t\\t\\t</div>\\n\\t\\t</div>\\n\\t\\t\', escape=False)\nfor conta in contas:\n    response.write(\'\\n\\t\\t<div class="row my-3">\\n\\t\\t\\t<div class="col-md-3 ">\\n\\t\\t\\t\\t<h6 class="align-middle .text-center text-white ">\', escape=False)\n    response.write(A(conta.descricao, _href=URL(\'default\',\'conta\',args=conta.id),_class=\'text-white\'))\n    response.write(\'</h6>\\n\\t\\t\\t</div>\\n\\t\\t\\t<div class="col-md-3 ">\\n\\t\\t\\t\\t<h6 class="text-center text-white">\', escape=False)\n    response.write(conta.tipo.tipo)\n    response.write(\'</h6>\\n\\t\\t\\t</div>\\n\\t\\t\\t<div class="col-md-3 ">\\n\\t\\t\\t\\t<h6 class="align-middle text-center text-white ">\\n\\t\\t\\t\\t\', escape=False)\n    for row in db(db.contas.id==\'conta.conta_pai\').select(): print row.descricao\n    response.write(\'</h6>\\n\\t\\t\\t</div>\\n\\t\\t\\t<div class="col-md-3 text-center">\\n\\t\\t\\t\\t<div class="btn-group" role="group" aria-label="Basic example">\\n\\t\\t\\t\\t  <button type="button" class="btn bg-amarelo-claro text-azul">Editar</button>\\n\\t\\t\\t\\t  <button type="button" class="btn bg-azul-claro text-white">Excluir</button>\\n\\t\\t\\t\\t</div>\\n\\t\\t\\t</div>\\n\\t\\t</div>\\n\\t\\t\', escape=False)\n    pass\nresponse.write(\'\\n\\t</div>\\n</div>\\n\\n\\n\\t\\n\\t\\n\\n\\n\\t\\n\', escape=False)\nresponse.write(\'\\n\\n    <footer class="container">\\n      <p>&copy; IFRN 2019</p>\\n    </footer>\\n  \\n    <!-- Bootstrap core JavaScript\\n    ================================================== -->\\n    <!-- Placed at the end of the document so the pages load faster -->\\n    <script type="text/javascript" src="\', escape=False)\nresponse.write(URL(\'static\',\'js/jquery.js\'))\nresponse.write(\'"></script>\\n    <!--\\n      Jquery do Bootstrap\\n    <script src="https://code.jquery.com/jquery-3.2.1.slim.min.js" integrity="sha384-KJ3o2DKtIkvYIK3UENzmM7KCkRr/rE9/Qpg6aAZGJwFDMVNA/GpGFF93hXpG5KkN" crossorigin="anonymous"></script>\\n    -->\\n    <script>window.jQuery || document.write(\\\'<script src="../../../../assets/js/vendor/jquery-slim.min.js"><\\\\/script>\\\')</script>\\n\\n    <script src="\', escape=False)\nresponse.write(URL(\'static\',\'js/popper.min.js\'))\nresponse.write(\'"></script>\\n    \\n    <script src="\', escape=False)\nresponse.write(URL(\'static\',\'js/bootstrap.min.js\'))\nresponse.write(\'"></script>\\n  </body>\\n</html>\\n\', escape=False)'
p7
sS'snapshot'
p8
(dp9
sS'traceback'
p10
S'Traceback (most recent call last):\n  File "/home/dep-isaac/Documents/Assets/web2py/gluon/restricted.py", line 219, in restricted\n    exec(ccode, environment)\n  File "/home/dep-isaac/Documents/Assets/web2py/applications/sistema_plano_de_contas/views/default/plano_de_contas.html", line 13, in <module>\n    <div class="row ">\n  File "/home/dep-isaac/Documents/Assets/web2py/gluon/packages/dal/pydal/objects.py", line 2395, in select\n    return adapter.select(self.query, fields, attributes)\n  File "/home/dep-isaac/Documents/Assets/web2py/gluon/packages/dal/pydal/adapters/sqlite.py", line 82, in select\n    return super(SQLite, self).select(query, fields, attributes)\n  File "/home/dep-isaac/Documents/Assets/web2py/gluon/packages/dal/pydal/adapters/base.py", line 758, in select\n    colnames, sql = self._select_wcols(query, fields, **attributes)\n  File "/home/dep-isaac/Documents/Assets/web2py/gluon/packages/dal/pydal/adapters/base.py", line 673, in _select_wcols\n    query = self.expand(query, query_env=query_env)\n  File "/home/dep-isaac/Documents/Assets/web2py/gluon/packages/dal/pydal/adapters/base.py", line 435, in _expand\n    rv = op(first, second, **optional_args)\n  File "/home/dep-isaac/Documents/Assets/web2py/gluon/packages/dal/pydal/dialects/base.py", line 344, in eq\n    self.expand(second, first.type, query_env=query_env))\n  File "/home/dep-isaac/Documents/Assets/web2py/gluon/packages/dal/pydal/dialects/__init__.py", line 96, in expand\n    return self.adapter.expand(*args, **kwargs)\n  File "/home/dep-isaac/Documents/Assets/web2py/gluon/packages/dal/pydal/adapters/base.py", line 445, in _expand\n    rv = self.represent(expression, field_type)\n  File "/home/dep-isaac/Documents/Assets/web2py/gluon/packages/dal/pydal/adapters/base.py", line 382, in represent\n    return super(SQLAdapter, self).represent(obj, field_type)\n  File "/home/dep-isaac/Documents/Assets/web2py/gluon/packages/dal/pydal/adapters/base.py", line 336, in represent\n    return self.representer.represent(obj, field_type)\n  File "/home/dep-isaac/Documents/Assets/web2py/gluon/packages/dal/pydal/representers/__init__.py", line 251, in represent\n    rv = self.get_representer_for_type(field_type)(rv, field_type)\n  File "/home/dep-isaac/Documents/Assets/web2py/gluon/packages/dal/pydal/representers/__init__.py", line 139, in __call__\n    return self.adapt(self.call(value, field_type))\n  File "/home/dep-isaac/Documents/Assets/web2py/gluon/packages/dal/pydal/representers/__init__.py", line 136, in _call\n    return self.inner_call(value)\n  File "/home/dep-isaac/Documents/Assets/web2py/gluon/packages/dal/pydal/representers/__init__.py", line 124, in _inner_call\n    return self.obj.f(self.representer, value, **kwargs)\n  File "/home/dep-isaac/Documents/Assets/web2py/gluon/packages/dal/pydal/representers/base.py", line 26, in _id\n    return str(long(value))\nValueError: invalid literal for long() with base 10: \'conta.conta_pai\'\n'
p11
s.