(dp1
S'output'
p2
S"<class 'sqlite3.OperationalError'> Cannot add a NOT NULL column with default value NULL"
p3
sS'layer'
p4
S'C:\\Users\\JVM\\Documents\\assets\\web2py\\applications\\sistema_plano_de_contas\\models\\db_models.py'
p5
sS'code'
p6
S'<code object <module> at 04682D10, file "C:\\Users\\JVM\\Documents\\assets\\web2py\\applications\\sistema_plano_de_contas\\models\\db_models.py", line 1>'
p7
sS'snapshot'
p8
(dp9
S'exception'
p10
(dp11
S'__module__'
p12
S"'sqlite3'"
p13
sS'__getslice__'
p14
S"<method-wrapper '__getslice__' of OperationalError object>"
p15
sS'__str__'
p16
S"<method-wrapper '__str__' of OperationalError object>"
p17
sS'__reduce__'
p18
S'<built-in method __reduce__ of OperationalError object>'
p19
sS'__dict__'
p20
S'{}'
p21
sS'__sizeof__'
p22
S'<built-in method __sizeof__ of OperationalError object>'
p23
sS'__weakref__'
p24
S'None'
p25
sS'message'
p26
S"'Cannot add a NOT NULL column with default value NULL'"
p27
sS'__init__'
p28
S"<method-wrapper '__init__' of OperationalError object>"
p29
sS'__setattr__'
p30
S"<method-wrapper '__setattr__' of OperationalError object>"
p31
sS'__reduce_ex__'
p32
S'<built-in method __reduce_ex__ of OperationalError object>'
p33
sS'__new__'
p34
S'<built-in method __new__ of type object>'
p35
sS'__format__'
p36
S'<built-in method __format__ of OperationalError object>'
p37
sS'__class__'
p38
S"<class 'sqlite3.OperationalError'>"
p39
sS'__doc__'
p40
S'None'
p41
sS'__getitem__'
p42
S"<method-wrapper '__getitem__' of OperationalError object>"
p43
sS'__setstate__'
p44
S'<built-in method __setstate__ of OperationalError object>'
p45
sS'__getattribute__'
p46
S"<method-wrapper '__getattribute__' of OperationalError object>"
p47
sS'args'
p48
S"('Cannot add a NOT NULL column with default value NULL',)"
p49
sS'__subclasshook__'
p50
S'<built-in method __subclasshook__ of type object>'
p51
sS'__unicode__'
p52
S'<built-in method __unicode__ of OperationalError object>'
p53
sS'__delattr__'
p54
S"<method-wrapper '__delattr__' of OperationalError object>"
p55
sS'__repr__'
p56
S"<method-wrapper '__repr__' of OperationalError object>"
p57
sS'__hash__'
p58
S"<method-wrapper '__hash__' of OperationalError object>"
p59
ssS'evalue'
p60
S'Cannot add a NOT NULL column with default value NULL'
p61
sS'request'
p62
cgluon.html
XML_unpickle
p63
(S's\xf7a\x00\x00<div><table><tr><td style="font-weight:bold;vertical-align:top;">ajax</td><td style="vertical-align:top;">:</td><td><div>False</div></td></tr><tr><td style="font-weight:bold;vertical-align:top;">application</td><td style="vertical-align:top;">:</td><td><div>sistema_plano_de_contas</div></td></tr><tr><td style="font-weight:bold;vertical-align:top;">args</td><td style="vertical-align:top;">:</td><td><div><table></table></div></td></tr><tr><td style="font-weight:bold;vertical-align:top;">cid</td><td style="vertical-align:top;">:</td><td><div>None</div></td></tr><tr><td style="font-weight:bold;vertical-align:top;">client</td><td style="vertical-align:top;">:</td><td><div>127.0.0.1</div></td></tr><tr><td style="font-weight:bold;vertical-align:top;">controller</td><td style="vertical-align:top;">:</td><td><div>default</div></td></tr><tr><td style="font-weight:bold;vertical-align:top;">cookies</td><td style="vertical-align:top;">:</td><td><div><table><tr><td style="font-weight:bold;vertical-align:top;">session_id_admin</td><td style="vertical-align:top;">:</td><td><div>127.0.0.1-e38f73b4-4718-4635-b020-13bd781eea59<table><tr><td style="font-weight:bold;vertical-align:top;">comment</td><td style="vertical-align:top;">:</td><td><div></div></td></tr><tr><td style="font-weight:bold;vertical-align:top;">domain</td><td style="vertical-align:top;">:</td><td><div></div></td></tr><tr><td style="font-weight:bold;vertical-align:top;">expires</td><td style="vertical-align:top;">:</td><td><div></div></td></tr><tr><td style="font-weight:bold;vertical-align:top;">httponly</td><td style="vertical-align:top;">:</td><td><div></div></td></tr><tr><td style="font-weight:bold;vertical-align:top;">max-age</td><td style="vertical-align:top;">:</td><td><div></div></td></tr><tr><td style="font-weight:bold;vertical-align:top;">path</td><td style="vertical-align:top;">:</td><td><div></div></td></tr><tr><td style="font-weight:bold;vertical-align:top;">samesite</td><td style="vertical-align:top;">:</td><td><div></div></td></tr><tr><td style="font-weight:bold;vertical-align:top;">secure</td><td style="vertical-align:top;">:</td><td><div></div></td></tr><tr><td style="font-weight:bold;vertical-align:top;">version</td><td style="vertical-align:top;">:</td><td><div></div></td></tr></table></div></td></tr><tr><td style="font-weight:bold;vertical-align:top;">session_id_sistema_plano_de_contas</td><td style="vertical-align:top;">:</td><td><div>127.0.0.1-b69b1041-2bdd-4ab5-ac30-291808220555<table><tr><td style="font-weight:bold;vertical-align:top;">comment</td><td style="vertical-align:top;">:</td><td><div></div></td></tr><tr><td style="font-weight:bold;vertical-align:top;">domain</td><td style="vertical-align:top;">:</td><td><div></div></td></tr><tr><td style="font-weight:bold;vertical-align:top;">expires</td><td style="vertical-align:top;">:</td><td><div></div></td></tr><tr><td style="font-weight:bold;vertical-align:top;">httponly</td><td style="vertical-align:top;">:</td><td><div></div></td></tr><tr><td style="font-weight:bold;vertical-align:top;">max-age</td><td style="vertical-align:top;">:</td><td><div></div></td></tr><tr><td style="font-weight:bold;vertical-align:top;">path</td><td style="vertical-align:top;">:</td><td><div></div></td></tr><tr><td style="font-weight:bold;vertical-align:top;">samesite</td><td style="vertical-align:top;">:</td><td><div></div></td></tr><tr><td style="font-weight:bold;vertical-align:top;">secure</td><td style="vertical-align:top;">:</td><td><div></div></td></tr><tr><td style="font-weight:bold;vertical-align:top;">version</td><td style="vertical-align:top;">:</td><td><div></div></td></tr></table></div></td></tr><tr><td style="font-weight:bold;vertical-align:top;">session_id_welcome</td><td style="vertical-align:top;">:</td><td><div>127.0.0.1-b252670b-244b-4be8-9d01-0ea3b914b895<table><tr><td style="font-weight:bold;vertical-align:top;">comment</td><td style="vertical-align:top;">:</td><td><div></div></td></tr><tr><td style="font-weight:bold;vertical-align:top;">domain</td><td style="vertical-align:top;">:</td><td><div></div></td></tr><tr><td style="font-weight:bold;vertical-align:top;">expires</td><td style="vertical-align:top;">:</td><td><div></div></td></tr><tr><td style="font-weight:bold;vertical-align:top;">httponly</td><td style="vertical-align:top;">:</td><td><div></div></td></tr><tr><td style="font-weight:bold;vertical-align:top;">max-age</td><td style="vertical-align:top;">:</td><td><div></div></td></tr><tr><td style="font-weight:bold;vertical-align:top;">path</td><td style="vertical-align:top;">:</td><td><div></div></td></tr><tr><td style="font-weight:bold;vertical-align:top;">samesite</td><td style="vertical-align:top;">:</td><td><div></div></td></tr><tr><td style="font-weight:bold;vertical-align:top;">secure</td><td style="vertical-align:top;">:</td><td><div></div></td></tr><tr><td style="font-weight:bold;vertical-align:top;">version</td><td style="vertical-align:top;">:</td><td><div></div></td></tr></table></div></td></tr></table></div></td></tr><tr><td style="font-weight:bold;vertical-align:top;">env</td><td style="vertical-align:top;">:</td><td><div><table><tr><td style="font-weight:bold;vertical-align:top;">HTTP_ACCEPT</td><td style="vertical-align:top;">:</td><td><div>text/html,application/xhtml+xml,application/xml;q=0.9,image/webp,image/apng,*/*;q=0.8,application/signed-exchange;v=b3</div></td></tr><tr><td style="font-weight:bold;vertical-align:top;">HTTP_ACCEPT_ENCODING</td><td style="vertical-align:top;">:</td><td><div>gzip, deflate, br</div></td></tr><tr><td style="font-weight:bold;vertical-align:top;">HTTP_ACCEPT_LANGUAGE</td><td style="vertical-align:top;">:</td><td><div>pt-BR,pt;q=0.9,en-US;q=0.8,en;q=0.7</div></td></tr><tr><td style="font-weight:bold;vertical-align:top;">HTTP_CACHE_CONTROL</td><td style="vertical-align:top;">:</td><td><div>max-age=0</div></td></tr><tr><td style="font-weight:bold;vertical-align:top;">HTTP_CONNECTION</td><td style="vertical-align:top;">:</td><td><div>keep-alive</div></td></tr><tr><td style="font-weight:bold;vertical-align:top;">HTTP_COOKIE</td><td style="vertical-align:top;">:</td><td><div>session_id_admin=127.0.0.1-e38f73b4-4718-4635-b020-13bd781eea59; session_id_sistema_plano_de_contas=127.0.0.1-b69b1041-2bdd-4ab5-ac30-291808220555; session_id_welcome=127.0.0.1-b252670b-244b-4be8-9d01-0ea3b914b895</div></td></tr><tr><td style="font-weight:bold;vertical-align:top;">HTTP_HOST</td><td style="vertical-align:top;">:</td><td><div>127.0.0.1:8000</div></td></tr><tr><td style="font-weight:bold;vertical-align:top;">HTTP_UPGRADE_INSECURE_REQUESTS</td><td style="vertical-align:top;">:</td><td><div>1</div></td></tr><tr><td style="font-weight:bold;vertical-align:top;">HTTP_USER_AGENT</td><td style="vertical-align:top;">:</td><td><div>Mozilla/5.0 (Windows NT 6.1; Win64; x64) AppleWebKit/537.36 (KHTML, like Gecko) Chrome/74.0.3729.169 Safari/537.36</div></td></tr><tr><td style="font-weight:bold;vertical-align:top;">PATH_INFO</td><td style="vertical-align:top;">:</td><td><div>/sistema_plano_de_contas/default/plano_de_contas</div></td></tr><tr><td style="font-weight:bold;vertical-align:top;">QUERY_STRING</td><td style="vertical-align:top;">:</td><td><div></div></td></tr><tr><td style="font-weight:bold;vertical-align:top;">REMOTE_ADDR</td><td style="vertical-align:top;">:</td><td><div>127.0.0.1</div></td></tr><tr><td style="font-weight:bold;vertical-align:top;">REMOTE_PORT</td><td style="vertical-align:top;">:</td><td><div>65512</div></td></tr><tr><td style="font-weight:bold;vertical-align:top;">REQUEST_METHOD</td><td style="vertical-align:top;">:</td><td><div>GET</div></td></tr><tr><td style="font-weight:bold;vertical-align:top;">SCRIPT_NAME</td><td style="vertical-align:top;">:</td><td><div></div></td></tr><tr><td style="font-weight:bold;vertical-align:top;">SERVER_NAME</td><td style="vertical-align:top;">:</td><td><div>JVM-PC</div></td></tr><tr><td style="font-weight:bold;vertical-align:top;">SERVER_PORT</td><td style="vertical-align:top;">:</td><td><div>8000</div></td></tr><tr><td style="font-weight:bold;vertical-align:top;">SERVER_PROTOCOL</td><td style="vertical-align:top;">:</td><td><div>HTTP/1.1</div></td></tr><tr><td style="font-weight:bold;vertical-align:top;">SERVER_SOFTWARE</td><td style="vertical-align:top;">:</td><td><div>Rocket 1.2.6</div></td></tr><tr><td style="font-weight:bold;vertical-align:top;">app_folders</td><td style="vertical-align:top;">:</td><td><div>set([&#x27;C:\\\\Users\\\\JVM\\\\Documents\\\\assets\\\\web2py\\\\applications\\\\welcome&#x27;, &#x27;C:\\\\Users\\\\JVM\\\\Documents\\\\assets\\\\web2py\\\\applications\\\\sistema_plano_de_contas&#x27;, &#x27;C:\\\\Users\\\\JVM\\\\Documents\\\\assets\\\\web2py\\\\applications\\\\admin&#x27;])</div></td></tr><tr><td style="font-weight:bold;vertical-align:top;">applications_parent</td><td style="vertical-align:top;">:</td><td><div>C:\\Users\\JVM\\Documents\\assets\\web2py</div></td></tr><tr><td style="font-weight:bold;vertical-align:top;">cmd_args</td><td style="vertical-align:top;">:</td><td><div><table></table></div></td></tr><tr><td style="font-weight:bold;vertical-align:top;">cmd_options</td><td style="vertical-align:top;">:</td><td><div>&lt;Values at 0x31f6468: {&#x27;verbose&#x27;: False, &#x27;ip&#x27;: &#x27;127.0.0.1&#x27;, &#x27;debuglevel&#x27;: 30, &#x27;with_scheduler&#x27;: False, &#x27;shutdown_timeout&#x27;: 5, &#x27;taskbar&#x27;: False, &#x27;with_coverage&#x27;: False, &#x27;pid_filename&#x27;: &#x27;httpserver.pid&#x27;, &#x27;maxthreads&#x27;: None, &#x27;softcron&#x27;: False, &#x27;server_name&#x27;: &#x27;JVM-PC&#x27;, &#x27;bpython&#x27;: False, &#x27;nogui&#x27;: False, &#x27;port&#x27;: 8000, &#x27;print_errors&#x27;: False, &#x27;extcron&#x27;: False, &#x27;runcron&#x27;: False, &#x27;run_system_tests&#x27;: False, &#x27;test&#x27;: None, &#x27;folder&#x27;: &#x27;C:\\\\Users\\\\JVM\\\\Documents\\\\assets\\\\web2py&#x27;, &#x27;config&#x27;: &#x27;&#x27;, &#x27;minthreads&#x27;: None, &#x27;shell&#x27;: None, &#x27;run&#x27;: &#x27;&#x27;, &#x27;log_filename&#x27;: &#x27;httpserver.log&#x27;, &#x27;profiler_dir&#x27;: None, &#x27;args&#x27;: [], &#x27;socket_timeout&#x27;: 5, &#x27;ssl_ca_certificate&#x27;: None, &#x27;scheduler&#x27;: None, &#x27;interfaces&#x27;: None, &#x27;ssl_private_key&#x27;: &#x27;&#x27;, &#x27;gae&#x27;: None, &#x27;password&#x27;: &#x27;******&#x27;, &#x27;request_queue_size&#x27;: 5, &#x27;ssl_certificate&#x27;: &#x27;&#x27;, &#x27;cronjob&#x27;: False, &#x27;numthreads&#x27;: None, &#x27;quiet&#x27;: False, &#x27;import_models&#x27;: False, &#x27;timeout&#x27;: 10, &#x27;plain&#x27;: False, &#x27;nobanner&#x27;: False}&gt;</div></td></tr><tr><td style="font-weight:bold;vertical-align:top;">db_sessions</td><td style="vertical-align:top;">:</td><td><div>set([])</div></td></tr><tr><td style="font-weight:bold;vertical-align:top;">debugging</td><td style="vertical-align:top;">:</td><td><div>False</div></td></tr><tr><td style="font-weight:bold;vertical-align:top;">gluon_parent</td><td style="vertical-align:top;">:</td><td><div>C:\\Users\\JVM\\Documents\\assets\\web2py</div></td></tr><tr><td style="font-weight:bold;vertical-align:top;">http_accept</td><td style="vertical-align:top;">:</td><td><div>text/html,application/xhtml+xml,application/xml;q=0.9,image/webp,image/apng,*/*;q=0.8,application/signed-exchange;v=b3</div></td></tr><tr><td style="font-weight:bold;vertical-align:top;">http_accept_encoding</td><td style="vertical-align:top;">:</td><td><div>gzip, deflate, br</div></td></tr><tr><td style="font-weight:bold;vertical-align:top;">http_accept_language</td><td style="vertical-align:top;">:</td><td><div>pt-BR,pt;q=0.9,en-US;q=0.8,en;q=0.7</div></td></tr><tr><td style="font-weight:bold;vertical-align:top;">http_cache_control</td><td style="vertical-align:top;">:</td><td><div>max-age=0</div></td></tr><tr><td style="font-weight:bold;vertical-align:top;">http_connection</td><td style="vertical-align:top;">:</td><td><div>keep-alive</div></td></tr><tr><td style="font-weight:bold;vertical-align:top;">http_cookie</td><td style="vertical-align:top;">:</td><td><div>session_id_admin=127.0.0.1-e38f73b4-4718-4635-b020-13bd781eea59; session_id_sistema_plano_de_contas=127.0.0.1-b69b1041-2bdd-4ab5-ac30-291808220555; session_id_welcome=127.0.0.1-b252670b-244b-4be8-9d01-0ea3b914b895</div></td></tr><tr><td style="font-weight:bold;vertical-align:top;">http_host</td><td style="vertical-align:top;">:</td><td><div>127.0.0.1:8000</div></td></tr><tr><td style="font-weight:bold;vertical-align:top;">http_upgrade_insecure_requests</td><td style="vertical-align:top;">:</td><td><div>1</div></td></tr><tr><td style="font-weight:bold;vertical-align:top;">http_user_agent</td><td style="vertical-align:top;">:</td><td><div>Mozilla/5.0 (Windows NT 6.1; Win64; x64) AppleWebKit/537.36 (KHTML, like Gecko) Chrome/74.0.3729.169 Safari/537.36</div></td></tr><tr><td style="font-weight:bold;vertical-align:top;">is_jython</td><td style="vertical-align:top;">:</td><td><div>False</div></td></tr><tr><td style="font-weight:bold;vertical-align:top;">is_py2</td><td style="vertical-align:top;">:</td><td><div>True</div></td></tr><tr><td style="font-weight:bold;vertical-align:top;">is_pypy</td><td style="vertical-align:top;">:</td><td><div>False</div></td></tr><tr><td style="font-weight:bold;vertical-align:top;">is_source</td><td style="vertical-align:top;">:</td><td><div>False</div></td></tr><tr><td style="font-weight:bold;vertical-align:top;">local_hosts</td><td style="vertical-align:top;">:</td><td><div><table><tr><td><div>2804:54:18ef:fb00:18aa:52d2:db24:8b2a</div></td></tr><tr><td><div>2804:54:18ef:fb00:a1b8:1697:76fa:26bb</div></td></tr><tr><td><div>192.168.0.47</div></td></tr><tr><td><div>::ffff:127.0.0.1</div></td></tr><tr><td><div>::1</div></td></tr><tr><td><div>2804:54:18ef:fb00::1009</div></td></tr><tr><td><div>fe80::a1b8:1697:76fa:26bb%15</div></td></tr><tr><td><div>JVM-PC</div></td></tr><tr><td><div>127.0.0.1</div></td></tr></table></div></td></tr><tr><td style="font-weight:bold;vertical-align:top;">path_info</td><td style="vertical-align:top;">:</td><td><div>/sistema_plano_de_contas/default/plano_de_contas</div></td></tr><tr><td style="font-weight:bold;vertical-align:top;">query_string</td><td style="vertical-align:top;">:</td><td><div></div></td></tr><tr><td style="font-weight:bold;vertical-align:top;">remote_addr</td><td style="vertical-align:top;">:</td><td><div>127.0.0.1</div></td></tr><tr><td style="font-weight:bold;vertical-align:top;">remote_port</td><td style="vertical-align:top;">:</td><td><div>65512</div></td></tr><tr><td style="font-weight:bold;vertical-align:top;">request_method</td><td style="vertical-align:top;">:</td><td><div>GET</div></td></tr><tr><td style="font-weight:bold;vertical-align:top;">request_uri</td><td style="vertical-align:top;">:</td><td><div>/sistema_plano_de_contas/default/plano_de_contas</div></td></tr><tr><td style="font-weight:bold;vertical-align:top;">script_name</td><td style="vertical-align:top;">:</td><td><div></div></td></tr><tr><td style="font-weight:bold;vertical-align:top;">server_name</td><td style="vertical-align:top;">:</td><td><div>JVM-PC</div></td></tr><tr><td style="font-weight:bold;vertical-align:top;">server_port</td><td style="vertical-align:top;">:</td><td><div>8000</div></td></tr><tr><td style="font-weight:bold;vertical-align:top;">server_protocol</td><td style="vertical-align:top;">:</td><td><div>HTTP/1.1</div></td></tr><tr><td style="font-weight:bold;vertical-align:top;">server_software</td><td style="vertical-align:top;">:</td><td><div>Rocket 1.2.6</div></td></tr><tr><td style="font-weight:bold;vertical-align:top;">web2py_path</td><td style="vertical-align:top;">:</td><td><div>C:\\Users\\JVM\\Documents\\assets\\web2py</div></td></tr><tr><td style="font-weight:bold;vertical-align:top;">web2py_version</td><td style="vertical-align:top;">:</td><td><div>2.18.5-stable+timestamp.2019.04.08.04.22.03</div></td></tr><tr><td style="font-weight:bold;vertical-align:top;">wsgi.errors</td><td style="vertical-align:top;">:</td><td><div>&lt;open file &#x27;&lt;stderr&gt;&#x27;, mode &#x27;w&#x27; at 0x0209D0D0&gt;</div></td></tr><tr><td style="font-weight:bold;vertical-align:top;">wsgi.file_wrapper</td><td style="vertical-align:top;">:</td><td><div>&lt;class wsgiref.util.FileWrapper at 0x03267A40&gt;</div></td></tr><tr><td style="font-weight:bold;vertical-align:top;">wsgi.input</td><td style="vertical-align:top;">:</td><td><div>&lt;socket._fileobject object at 0x047E00B0&gt;</div></td></tr><tr><td style="font-weight:bold;vertical-align:top;">wsgi.multiprocess</td><td style="vertical-align:top;">:</td><td><div>False</div></td></tr><tr><td style="font-weight:bold;vertical-align:top;">wsgi.multithread</td><td style="vertical-align:top;">:</td><td><div>True</div></td></tr><tr><td style="font-weight:bold;vertical-align:top;">wsgi.run_once</td><td style="vertical-align:top;">:</td><td><div>False</div></td></tr><tr><td style="font-weight:bold;vertical-align:top;">wsgi.url_scheme</td><td style="vertical-align:top;">:</td><td><div>http</div></td></tr><tr><td style="font-weight:bold;vertical-align:top;">wsgi.version</td><td style="vertical-align:top;">:</td><td><div><table><tr><td><div>1</div></td></tr><tr><td><div>0</div></td></tr></table></div></td></tr><tr><td style="font-weight:bold;vertical-align:top;">wsgi_errors</td><td style="vertical-align:top;">:</td><td><div>&lt;open file &#x27;&lt;stderr&gt;&#x27;, mode &#x27;w&#x27; at 0x0209D0D0&gt;</div></td></tr><tr><td style="font-weight:bold;vertical-align:top;">wsgi_file_wrapper</td><td style="vertical-align:top;">:</td><td><div>&lt;class wsgiref.util.FileWrapper at 0x03267A40&gt;</div></td></tr><tr><td style="font-weight:bold;vertical-align:top;">wsgi_input</td><td style="vertical-align:top;">:</td><td><div>&lt;socket._fileobject object at 0x047E00B0&gt;</div></td></tr><tr><td style="font-weight:bold;vertical-align:top;">wsgi_multiprocess</td><td style="vertical-align:top;">:</td><td><div>False</div></td></tr><tr><td style="font-weight:bold;vertical-align:top;">wsgi_multithread</td><td style="vertical-align:top;">:</td><td><div>True</div></td></tr><tr><td style="font-weight:bold;vertical-align:top;">wsgi_run_once</td><td style="vertical-align:top;">:</td><td><div>False</div></td></tr><tr><td style="font-weight:bold;vertical-align:top;">wsgi_url_scheme</td><td style="vertical-align:top;">:</td><td><div>http</div></td></tr><tr><td style="font-weight:bold;vertical-align:top;">wsgi_version</td><td style="vertical-align:top;">:</td><td><div><table><tr><td><div>1</div></td></tr><tr><td><div>0</div></td></tr></table></div></td></tr></table></div></td></tr><tr><td style="font-weight:bold;vertical-align:top;">extension</td><td style="vertical-align:top;">:</td><td><div>html</div></td></tr><tr><td style="font-weight:bold;vertical-align:top;">folder</td><td style="vertical-align:top;">:</td><td><div>C:\\Users\\JVM\\Documents\\assets\\web2py\\applications\\sistema_plano_de_contas</div></td></tr><tr><td style="font-weight:bold;vertical-align:top;">function</td><td style="vertical-align:top;">:</td><td><div>plano_de_contas</div></td></tr><tr><td style="font-weight:bold;vertical-align:top;">global_settings</td><td style="vertical-align:top;">:</td><td><div><table><tr><td style="font-weight:bold;vertical-align:top;">app_folders</td><td style="vertical-align:top;">:</td><td><div>set([&#x27;C:\\\\Users\\\\JVM\\\\Documents\\\\assets\\\\web2py\\\\applications\\\\welcome&#x27;, &#x27;C:\\\\Users\\\\JVM\\\\Documents\\\\assets\\\\web2py\\\\applications\\\\sistema_plano_de_contas&#x27;, &#x27;C:\\\\Users\\\\JVM\\\\Documents\\\\assets\\\\web2py\\\\applications\\\\admin&#x27;])</div></td></tr><tr><td style="font-weight:bold;vertical-align:top;">applications_parent</td><td style="vertical-align:top;">:</td><td><div>C:\\Users\\JVM\\Documents\\assets\\web2py</div></td></tr><tr><td style="font-weight:bold;vertical-align:top;">cmd_args</td><td style="vertical-align:top;">:</td><td><div><table></table></div></td></tr><tr><td style="font-weight:bold;vertical-align:top;">cmd_options</td><td style="vertical-align:top;">:</td><td><div>&lt;Values at 0x31f6468: {&#x27;verbose&#x27;: False, &#x27;ip&#x27;: &#x27;127.0.0.1&#x27;, &#x27;debuglevel&#x27;: 30, &#x27;with_scheduler&#x27;: False, &#x27;shutdown_timeout&#x27;: 5, &#x27;taskbar&#x27;: False, &#x27;with_coverage&#x27;: False, &#x27;pid_filename&#x27;: &#x27;httpserver.pid&#x27;, &#x27;maxthreads&#x27;: None, &#x27;softcron&#x27;: False, &#x27;server_name&#x27;: &#x27;JVM-PC&#x27;, &#x27;bpython&#x27;: False, &#x27;nogui&#x27;: False, &#x27;port&#x27;: 8000, &#x27;print_errors&#x27;: False, &#x27;extcron&#x27;: False, &#x27;runcron&#x27;: False, &#x27;run_system_tests&#x27;: False, &#x27;test&#x27;: None, &#x27;folder&#x27;: &#x27;C:\\\\Users\\\\JVM\\\\Documents\\\\assets\\\\web2py&#x27;, &#x27;config&#x27;: &#x27;&#x27;, &#x27;minthreads&#x27;: None, &#x27;shell&#x27;: None, &#x27;run&#x27;: &#x27;&#x27;, &#x27;log_filename&#x27;: &#x27;httpserver.log&#x27;, &#x27;profiler_dir&#x27;: None, &#x27;args&#x27;: [], &#x27;socket_timeout&#x27;: 5, &#x27;ssl_ca_certificate&#x27;: None, &#x27;scheduler&#x27;: None, &#x27;interfaces&#x27;: None, &#x27;ssl_private_key&#x27;: &#x27;&#x27;, &#x27;gae&#x27;: None, &#x27;password&#x27;: &#x27;******&#x27;, &#x27;request_queue_size&#x27;: 5, &#x27;ssl_certificate&#x27;: &#x27;&#x27;, &#x27;cronjob&#x27;: False, &#x27;numthreads&#x27;: None, &#x27;quiet&#x27;: False, &#x27;import_models&#x27;: False, &#x27;timeout&#x27;: 10, &#x27;plain&#x27;: False, &#x27;nobanner&#x27;: False}&gt;</div></td></tr><tr><td style="font-weight:bold;vertical-align:top;">db_sessions</td><td style="vertical-align:top;">:</td><td><div>set([])</div></td></tr><tr><td style="font-weight:bold;vertical-align:top;">debugging</td><td style="vertical-align:top;">:</td><td><div>False</div></td></tr><tr><td style="font-weight:bold;vertical-align:top;">gluon_parent</td><td style="vertical-align:top;">:</td><td><div>C:\\Users\\JVM\\Documents\\assets\\web2py</div></td></tr><tr><td style="font-weight:bold;vertical-align:top;">is_jython</td><td style="vertical-align:top;">:</td><td><div>False</div></td></tr><tr><td style="font-weight:bold;vertical-align:top;">is_py2</td><td style="vertical-align:top;">:</td><td><div>True</div></td></tr><tr><td style="font-weight:bold;vertical-align:top;">is_pypy</td><td style="vertical-align:top;">:</td><td><div>False</div></td></tr><tr><td style="font-weight:bold;vertical-align:top;">is_source</td><td style="vertical-align:top;">:</td><td><div>False</div></td></tr><tr><td style="font-weight:bold;vertical-align:top;">local_hosts</td><td style="vertical-align:top;">:</td><td><div><table><tr><td><div>2804:54:18ef:fb00:18aa:52d2:db24:8b2a</div></td></tr><tr><td><div>2804:54:18ef:fb00:a1b8:1697:76fa:26bb</div></td></tr><tr><td><div>192.168.0.47</div></td></tr><tr><td><div>::ffff:127.0.0.1</div></td></tr><tr><td><div>::1</div></td></tr><tr><td><div>2804:54:18ef:fb00::1009</div></td></tr><tr><td><div>fe80::a1b8:1697:76fa:26bb%15</div></td></tr><tr><td><div>JVM-PC</div></td></tr><tr><td><div>127.0.0.1</div></td></tr></table></div></td></tr><tr><td style="font-weight:bold;vertical-align:top;">web2py_version</td><td style="vertical-align:top;">:</td><td><div>2.18.5-stable+timestamp.2019.04.08.04.22.03</div></td></tr></table></div></td></tr><tr><td style="font-weight:bold;vertical-align:top;">is_https</td><td style="vertical-align:top;">:</td><td><div>False</div></td></tr><tr><td style="font-weight:bold;vertical-align:top;">is_local</td><td style="vertical-align:top;">:</td><td><div>True</div></td></tr><tr><td style="font-weight:bold;vertical-align:top;">is_restful</td><td style="vertical-align:top;">:</td><td><div>False</div></td></tr><tr><td style="font-weight:bold;vertical-align:top;">is_scheduler</td><td style="vertical-align:top;">:</td><td><div>False</div></td></tr><tr><td style="font-weight:bold;vertical-align:top;">is_shell</td><td style="vertical-align:top;">:</td><td><div>False</div></td></tr><tr><td style="font-weight:bold;vertical-align:top;">method</td><td style="vertical-align:top;">:</td><td><div>GET</div></td></tr><tr><td style="font-weight:bold;vertical-align:top;">now</td><td style="vertical-align:top;">:</td><td><div>datetime.datetime(2019, 5, 30, 11, 30, 45, 464000)</div></td></tr><tr><td style="font-weight:bold;vertical-align:top;">raw_args</td><td style="vertical-align:top;">:</td><td><div></div></td></tr><tr><td style="font-weight:bold;vertical-align:top;">raw_extension</td><td style="vertical-align:top;">:</td><td><div>None</div></td></tr><tr><td style="font-weight:bold;vertical-align:top;">url</td><td style="vertical-align:top;">:</td><td><div>/sistema_plano_de_contas/default/plano_de_contas</div></td></tr><tr><td style="font-weight:bold;vertical-align:top;">utcnow</td><td style="vertical-align:top;">:</td><td><div>datetime.datetime(2019, 5, 30, 14, 30, 45, 464000)</div></td></tr><tr><td style="font-weight:bold;vertical-align:top;">wsgi</td><td style="vertical-align:top;">:</td><td><div>&lt;gluon.main.LazyWSGI object at 0x04A7E2D0&gt;</div></td></tr></table></div>'
tRp64
sS'frames'
p65
(lp66
(dp67
S'file'
p68
S'C:\\Users\\JVM\\Documents\\assets\\web2py\\gluon\\restricted.py'
p69
sS'dump'
p70
(dp71
S'environment'
p72
S"{'A': <class 'gluon.html.A'>, 'ANY_OF': <class 'pydal.validators.ANY_OF'>, 'ASSIGNJS': <function ASSIGNJS>, 'AppConfig': <function AppConfig>, 'Auth': <class 'gluon.tools.Auth'>, 'B': <class 'gluon.html.B'>, 'BEAUTIFY': <class 'gluon.html.BEAUTIFY'>, 'BODY': <class 'gluon.html.BODY'>, 'BR': <class 'gluon.html.BR'>, 'BUTTON': <class 'gluon.html.BUTTON'>, ...}"
p73
sS'ccode'
p74
S'<code object <module> at 04682D10, file "C:\\User...ema_plano_de_contas\\models\\db_models.py", line 1>'
p75
ssS'lnum'
p76
I219
sS'lines'
p77
(dp78
I214
S'    if environment is None:'
p79
sI215
S'        environment = {}'
p80
sI216
S"    environment['__file__'] = layer"
p81
sI217
S"    environment['__name__'] = '__restricted__'"
p82
sI218
S'    try:'
p83
sI219
S'        exec(ccode, environment)'
p84
sI220
S'    except HTTP:'
p85
sI221
S'        raise'
p86
sI222
S'    except RestrictedError:'
p87
sI223
S'        # do not encapsulate (obfuscate) the original RestrictedError'
p88
ssS'call'
p89
S'(ccode=<code object <module> at 04682D10, file "C:\\User...ema_plano_de_contas\\models\\db_models.py", line 1>, environment={\'A\': <class \'gluon.html.A\'>, \'ANY_OF\': <class \'pydal.validators.ANY_OF\'>, \'ASSIGNJS\': <function ASSIGNJS>, \'AppConfig\': <function AppConfig>, \'Auth\': <class \'gluon.tools.Auth\'>, \'B\': <class \'gluon.html.B\'>, \'BEAUTIFY\': <class \'gluon.html.BEAUTIFY\'>, \'BODY\': <class \'gluon.html.BODY\'>, \'BR\': <class \'gluon.html.BR\'>, \'BUTTON\': <class \'gluon.html.BUTTON\'>, ...}, layer=r\'C:\\Users\\JVM\\Documents\\assets\\web2py\\applications\\sistema_plano_de_contas\\models\\db_models.py\', scode=<code object <module> at 04682D10, file "C:\\User...ema_plano_de_contas\\models\\db_models.py", line 1>)'
p90
sS'func'
p91
S'restricted'
p92
sa(dp93
g68
S'C:\\Users\\JVM\\Documents\\assets\\web2py\\applications\\sistema_plano_de_contas\\models\\db_models.py'
p94
sg70
(dp95
S'Field'
p96
S"<class 'pydal.objects.Field'>"
p97
ssg76
I11
sg77
(dp98
I3
S"    ,Field('movimentacao',notnull=True)"
p99
sI4
S'    ,format="%(movimentacao)s"'
p100
sI5
S')'
sI6
S''
sI7
S'db.define_table('
p101
sI8
S"\t'contas'"
p102
sI9
S"\t,Field('movimentacao','reference movimentacao_contas', notnull=True)"
p103
sI10
S"    ,Field('descricao',notnull=True)"
p104
sI11
S"    ,Field('conta_pai','reference contas')"
p105
sI12
S')'
ssg89
S'()'
p106
sg91
S'<module>'
p107
sa(dp108
g68
S'C:\\Users\\JVM\\Documents\\assets\\web2py\\gluon\\packages\\dal\\pydal\\base.py'
p109
sg70
(dp110
S'fields'
p111
S'(<pydal.objects.Field object>, <pydal.objects.Field object>, <pydal.objects.Field object>)'
p112
sS'self'
p113
S'<DAL uri="sqlite://storage.sqlite">'
p114
sS'tablename'
p115
S"'contas'"
p116
sS'kwargs'
p117
g21
sS'table'
p118
S'undefined'
p119
sS'self.lazy_define_table'
p120
S'<bound method DAL.lazy_define_table of <DAL uri="sqlite://storage.sqlite">>'
p121
ssg76
I592
sg77
(dp122
I587
S'        if self._lazy_tables:'
p123
sI588
S'            if tablename not in self._LAZY_TABLES or redefine:'
p124
sI589
S'                self._LAZY_TABLES[tablename] = (tablename, fields, kwargs)'
p125
sI590
S'            table = None'
p126
sI591
S'        else:'
p127
sI592
S'            table = self.lazy_define_table(tablename, *fields, **kwargs)'
p128
sI593
S'        if tablename not in self.tables:'
p129
sI594
S'            self.tables.append(tablename)'
p130
sI595
S'        return table'
p131
sI596
S''
ssg89
S'(self=<DAL uri="sqlite://storage.sqlite">, tablename=\'contas\', *fields=(<pydal.objects.Field object>, <pydal.objects.Field object>, <pydal.objects.Field object>), **kwargs={})'
p132
sg91
S'define_table'
p133
sa(dp134
g68
S'C:\\Users\\JVM\\Documents\\assets\\web2py\\gluon\\packages\\dal\\pydal\\base.py'
p135
sg70
(dp136
S'polymodel'
p137
S'None'
p138
ssg76
I626
sg77
(dp139
I621
S'            try:'
p140
sI622
S'                GLOBAL_LOCKER.acquire()'
p141
sI623
S'                self._adapter.create_table('
p142
sI624
S'                    table, migrate=migrate,'
p143
sI625
S'                    fake_migrate=fake_migrate,'
p144
sI626
S'                    polymodel=polymodel)'
p145
sI627
S'            finally:'
p146
sI628
S'                GLOBAL_LOCKER.release()'
p147
sI629
S'        else:'
p148
sI630
S'            table._dbt = None'
p149
ssg89
S'(self=<DAL uri="sqlite://storage.sqlite">, tablename=\'contas\', *fields=(<pydal.objects.Field object>, <pydal.objects.Field object>, <pydal.objects.Field object>), **kwargs={})'
p150
sg91
S'lazy_define_table'
p151
sa(dp152
g68
S'C:\\Users\\JVM\\Documents\\assets\\web2py\\gluon\\packages\\dal\\pydal\\adapters\\base.py'
p153
sg70
(dp154
S'self'
p155
S'<pydal.adapters.sqlite.SQLite object>'
p156
sS'args'
p157
S'(<Table contas (id, movimentacao, descricao, conta_pai)>,)'
p158
sS'self.migrator'
p159
S'<pydal.migrator.Migrator object>'
p160
sS'self.migrator.create_table'
p161
S'<bound method Migrator.create_table of <pydal.migrator.Migrator object>>'
p162
sS'kwargs'
p163
S"{'fake_migrate': False, 'migrate': True, 'polymodel': None}"
p164
ssg76
I798
sg77
(dp165
I800
S'    def _drop_table_cleanup(self, table):'
p166
sI801
S'        super(SQLAdapter, self)._drop_table_cleanup(table)'
p167
sI802
S'        if table._dbt:'
p168
sI793
S''
sI794
S'    def bulk_insert(self, table, items):'
p169
sI795
S'        return [self.insert(table, item) for item in items]'
p170
sI796
S''
sI797
S'    def create_table(self, *args, **kwargs):'
p171
sI798
S'        return self.migrator.create_table(*args, **kwargs)'
p172
sI799
S''
ssg89
S"(self=<pydal.adapters.sqlite.SQLite object>, *args=(<Table contas (id, movimentacao, descricao, conta_pai)>,), **kwargs={'fake_migrate': False, 'migrate': True, 'polymodel': None})"
p173
sg91
S'create_table'
p174
sa(dp175
g68
S'C:\\Users\\JVM\\Documents\\assets\\web2py\\gluon\\packages\\dal\\pydal\\migrator.py'
p176
sg70
(dp177
S'fake_migrate'
p178
S'False'
p179
ssg76
I318
sg77
(dp180
I320
S'        return query'
p181
sI321
S''
sI322
S'    def _fix(self, item):'
p182
sI313
S'            if sql_fields != sql_fields_old:'
p183
sI314
S'                self.migrate_table('
p184
sI315
S'                    table,'
p185
sI316
S'                    sql_fields, sql_fields_old,'
p186
sI317
S'                    sql_fields_aux, None,'
p187
sI318
S'                    fake_migrate=fake_migrate'
p188
sI319
S'                    )'
p189
ssg89
S'(self=<pydal.migrator.Migrator object>, table=<Table contas (id, movimentacao, descricao, conta_pai)>, migrate=True, fake_migrate=False, polymodel=None)'
p190
sg91
g174
sa(dp191
g68
S'C:\\Users\\JVM\\Documents\\assets\\web2py\\gluon\\packages\\dal\\pydal\\migrator.py'
p192
sg70
(dp193
S'self'
p194
S'<pydal.migrator.Migrator object>'
p195
sS'self.adapter.execute'
p196
S'<bound method SQLite.wrap of <pydal.adapters.sqlite.SQLite object>>'
p197
sS'self.adapter'
p198
S'<pydal.adapters.sqlite.SQLite object>'
p199
sS'sub_query'
p200
S'\'ALTER TABLE "contas" ADD "movimentacao" INTEGER ...acao_contas" ("id") ON DELETE CASCADE  NOT NULL ;\''
p201
ssg76
I451
sg77
(dp202
I448
S'                            self.save_dbt(table, sql_fields_current)'
p203
sI449
S"                        self.log('faked!\\n', table)"
p204
sI450
S'                    else:'
p205
sI451
S'                        self.adapter.execute(sub_query)'
p206
sI452
S'                        # Caveat: mysql, oracle and firebird'
p207
sI453
S'                        # do not allow multiple alter table'
p208
sI454
S'                        # in one transaction so we must commit'
p209
sI455
S'                        # partial transactions and'
p210
sI446
S'                    if fake_migrate:'
p211
sI447
S'                        if db._adapter.commit_on_alter_table:'
p212
ssg89
S'(self=<pydal.migrator.Migrator object>, table=<Table contas (id, movimentacao, descricao, conta_pai)>, sql_fields={\'conta_pai\': {\'length\': 512, \'notnull\': False, \'raw_rname\': \'conta_pai\', \'rname\': \'"conta_pai"\', \'sortable\': 4, \'sql\': \'INTEGER REFERENCES "contas" ("id") ON DELETE CASCADE  \', \'type\': \'reference contas\', \'unique\': False}, \'descricao\': {\'length\': 512, \'notnull\': True, \'raw_rname\': \'descricao\', \'rname\': \'"descricao"\', \'sortable\': 3, \'sql\': \'CHAR(512) NOT NULL\', \'type\': \'string\', \'unique\': False}, \'id\': {\'length\': 512, \'notnull\': False, \'raw_rname\': \'id\', \'rname\': \'"id"\', \'sortable\': 1, \'sql\': \'INTEGER PRIMARY KEY AUTOINCREMENT\', \'type\': \'id\', \'unique\': False}, \'movimentacao\': {\'length\': 512, \'notnull\': True, \'raw_rname\': \'movimentacao\', \'rname\': \'"movimentacao"\', \'sortable\': 2, \'sql\': \'INTEGER REFERENCES "movimentacao_contas" ("id") ON DELETE CASCADE  NOT NULL \', \'type\': \'reference movimentacao_contas\', \'unique\': False}}, sql_fields_old={\'conta_pai\': {\'length\': 512, \'notnull\': False, \'raw_rname\': \'conta_pai\', \'rname\': \'"conta_pai"\', \'sortable\': 4, \'sql\': \'INTEGER REFERENCES "contas" ("id") ON DELETE CASCADE  \', \'type\': \'reference contas\', \'unique\': False}, \'descricao\': {\'length\': 512, \'notnull\': True, \'raw_rname\': \'descricao\', \'rname\': \'"descricao"\', \'sortable\': 3, \'sql\': \'CHAR(512) NOT NULL\', \'type\': \'string\', \'unique\': False}, \'id\': {\'length\': 512, \'notnull\': False, \'raw_rname\': \'id\', \'rname\': \'"id"\', \'sortable\': 1, \'sql\': \'INTEGER PRIMARY KEY AUTOINCREMENT\', \'type\': \'id\', \'unique\': False}, \'tipo\': {\'length\': 512, \'notnull\': True, \'raw_rname\': \'tipo\', \'rname\': \'"tipo"\', \'sortable\': 2, \'sql\': \'INTEGER REFERENCES "tipo_contas" ("id") ON DELETE CASCADE  NOT NULL \', \'type\': \'reference tipo_contas\', \'unique\': False}}, sql_fields_aux={\'conta_pai\': {\'sql\': \'INTEGER REFERENCES "contas" ("id") ON DELETE CASCADE  \'}, \'descricao\': {\'sql\': \'CHAR(512) NOT NULL\'}, \'id\': {\'sql\': \'INTEGER PRIMARY KEY AUTOINCREMENT\'}, \'movimentacao\': {\'sql\': \'INTEGER REFERENCES "movimentacao_contas" ("id") ON DELETE CASCADE  NOT NULL \'}}, logfile=None, fake_migrate=False)'
p213
sg91
S'migrate_table'
p214
sa(dp215
g68
S'C:\\Users\\JVM\\Documents\\assets\\web2py\\gluon\\packages\\dal\\pydal\\adapters\\__init__.py'
p216
sg70
(dp217
S'kwargs'
p218
g21
sS'args'
p219
S'(<pydal.adapters.sqlite.SQLite object>, \'ALTER TABLE "contas" ADD "movimentacao" INTEGER ...acao_contas" ("id") ON DELETE CASCADE  NOT NULL ;\')'
p220
sS'f'
S'<function execute>'
p221
ssg76
I67
sg77
(dp222
I64
S'            if len(args) > 1:'
p223
sI65
S'                raise ValueError(args[1])'
p224
sI66
S"            raise RuntimeError('no connection available')"
p225
sI67
S'        return f(*args, **kwargs)'
p226
sI68
S'    return wrap'
p227
sI69
S''
sI70
S''
sI71
S'from .base import SQLAdapter, NoSQLAdapter'
p228
sI62
S'    def wrap(*args, **kwargs):'
p229
sI63
S'        if not args[0].connection:'
p230
ssg89
S'(*args=(<pydal.adapters.sqlite.SQLite object>, \'ALTER TABLE "contas" ADD "movimentacao" INTEGER ...acao_contas" ("id") ON DELETE CASCADE  NOT NULL ;\'), **kwargs={})'
p231
sg91
S'wrap'
p232
sa(dp233
g68
S'C:\\Users\\JVM\\Documents\\assets\\web2py\\gluon\\packages\\dal\\pydal\\adapters\\base.py'
p234
sg70
(dp235
S'rv'
p236
g119
sS'self'
p237
S'<pydal.adapters.sqlite.SQLite object>'
p238
sS'args'
p239
S'(\'ALTER TABLE "contas" ADD "movimentacao" INTEGER ...acao_contas" ("id") ON DELETE CASCADE  NOT NULL ;\',)'
p240
sS'self.cursor'
p241
S'<sqlite3.Cursor object>'
p242
sS'command'
p243
S'\'ALTER TABLE "contas" ADD "movimentacao" INTEGER ...acao_contas" ("id") ON DELETE CASCADE  NOT NULL ;\''
p244
sS'self.cursor.execute'
p245
S'<built-in method execute of sqlite3.Cursor object>'
p246
sS'kwargs'
p247
g21
ssg76
I413
sg77
(dp248
I416
S'        return rv'
p249
sI417
S''
sI408
S'    def execute(self, *args, **kwargs):'
p250
sI409
S'        command = self.filter_sql_command(args[0])'
p251
sI410
S'        handlers = self._build_handlers_for_execution()'
p252
sI411
S'        for handler in handlers:'
p253
sI412
S'            handler.before_execute(command)'
p254
sI413
S'        rv = self.cursor.execute(command, *args[1:], **kwargs)'
p255
sI414
S'        for handler in handlers:'
p256
sI415
S'            handler.after_execute(command)'
p257
ssg89
S'(self=<pydal.adapters.sqlite.SQLite object>, *args=(\'ALTER TABLE "contas" ADD "movimentacao" INTEGER ...acao_contas" ("id") ON DELETE CASCADE  NOT NULL ;\',), **kwargs={})'
p258
sg91
S'execute'
p259
sasS'pyver'
p260
S'Python 2.7.9: C:\\Users\\JVM\\Documents\\assets\\web2py\\web2py.exe (prefix: )'
p261
sS'session'
p262
g63
(S's7\x01\x00\x00<div><table><tr><td style="font-weight:bold;vertical-align:top;">last_orderby</td><td style="vertical-align:top;">:</td><td><div>None</div></td></tr><tr><td style="font-weight:bold;vertical-align:top;">last_query</td><td style="vertical-align:top;">:</td><td><div>db.contas.id&gt;0</div></td></tr></table></div>'
tRp263
sS'etype'
p264
S"<class 'sqlite3.OperationalError'>"
p265
sS'date'
p266
S'Thu May 30 11:30:45 2019'
p267
sS'response'
p268
g63
(S's\\\x1c\x00\x00<div><table><tr><td style="font-weight:bold;vertical-align:top;">body</td><td style="vertical-align:top;">:</td><td><div>&lt;cStringIO.StringO object at 0x04B19240&gt;</div></td></tr><tr><td style="font-weight:bold;vertical-align:top;">cookies</td><td style="vertical-align:top;">:</td><td><div><table><tr><td style="font-weight:bold;vertical-align:top;">session_id_sistema_plano_de_contas</td><td style="vertical-align:top;">:</td><td><div>127.0.0.1-b69b1041-2bdd-4ab5-ac30-291808220555<table><tr><td style="font-weight:bold;vertical-align:top;">comment</td><td style="vertical-align:top;">:</td><td><div></div></td></tr><tr><td style="font-weight:bold;vertical-align:top;">domain</td><td style="vertical-align:top;">:</td><td><div></div></td></tr><tr><td style="font-weight:bold;vertical-align:top;">expires</td><td style="vertical-align:top;">:</td><td><div></div></td></tr><tr><td style="font-weight:bold;vertical-align:top;">httponly</td><td style="vertical-align:top;">:</td><td><div></div></td></tr><tr><td style="font-weight:bold;vertical-align:top;">max-age</td><td style="vertical-align:top;">:</td><td><div></div></td></tr><tr><td style="font-weight:bold;vertical-align:top;">path</td><td style="vertical-align:top;">:</td><td><div>/</div></td></tr><tr><td style="font-weight:bold;vertical-align:top;">samesite</td><td style="vertical-align:top;">:</td><td><div></div></td></tr><tr><td style="font-weight:bold;vertical-align:top;">secure</td><td style="vertical-align:top;">:</td><td><div></div></td></tr><tr><td style="font-weight:bold;vertical-align:top;">version</td><td style="vertical-align:top;">:</td><td><div></div></td></tr></table></div></td></tr></table></div></td></tr><tr><td style="font-weight:bold;vertical-align:top;">delimiters</td><td style="vertical-align:top;">:</td><td><div><table><tr><td><div>{{</div></td></tr><tr><td><div>}}</div></td></tr></table></div></td></tr><tr><td style="font-weight:bold;vertical-align:top;">files</td><td style="vertical-align:top;">:</td><td><div><table></table></div></td></tr><tr><td style="font-weight:bold;vertical-align:top;">flash</td><td style="vertical-align:top;">:</td><td><div></div></td></tr><tr><td style="font-weight:bold;vertical-align:top;">form_label_separator</td><td style="vertical-align:top;">:</td><td><div></div></td></tr><tr><td style="font-weight:bold;vertical-align:top;">formstyle</td><td style="vertical-align:top;">:</td><td><div>bootstrap4_inline</div></td></tr><tr><td style="font-weight:bold;vertical-align:top;">generic_patterns</td><td style="vertical-align:top;">:</td><td><div><table><tr><td><div>*</div></td></tr></table></div></td></tr><tr><td style="font-weight:bold;vertical-align:top;">google_analytics_id</td><td style="vertical-align:top;">:</td><td><div>None</div></td></tr><tr><td style="font-weight:bold;vertical-align:top;">headers</td><td style="vertical-align:top;">:</td><td><div><table><tr><td style="font-weight:bold;vertical-align:top;">X-Powered-By</td><td style="vertical-align:top;">:</td><td><div>web2py</div></td></tr></table></div></td></tr><tr><td style="font-weight:bold;vertical-align:top;">menu</td><td style="vertical-align:top;">:</td><td><div><table></table></div></td></tr><tr><td style="font-weight:bold;vertical-align:top;">meta</td><td style="vertical-align:top;">:</td><td><div><table><tr><td style="font-weight:bold;vertical-align:top;">author</td><td style="vertical-align:top;">:</td><td><div>Your Name &lt;you@example.com&gt;</div></td></tr><tr><td style="font-weight:bold;vertical-align:top;">description</td><td style="vertical-align:top;">:</td><td><div>a cool new app</div></td></tr><tr><td style="font-weight:bold;vertical-align:top;">generator</td><td style="vertical-align:top;">:</td><td><div>Web2py Web Framework</div></td></tr><tr><td style="font-weight:bold;vertical-align:top;">keywords</td><td style="vertical-align:top;">:</td><td><div><table><tr><td><div>web2py</div></td></tr><tr><td><div>python</div></td></tr><tr><td><div>framework</div></td></tr></table></div></td></tr></table></div></td></tr><tr><td style="font-weight:bold;vertical-align:top;">models_to_run</td><td style="vertical-align:top;">:</td><td><div><table><tr><td><div>^\\w+\\.py$</div></td></tr><tr><td><div>^default/\\w+\\.py$</div></td></tr><tr><td><div>^default/plano_de_contas/\\w+\\.py$</div></td></tr></table></div></td></tr><tr><td style="font-weight:bold;vertical-align:top;">postprocessing</td><td style="vertical-align:top;">:</td><td><div><table></table></div></td></tr><tr><td style="font-weight:bold;vertical-align:top;">session_client</td><td style="vertical-align:top;">:</td><td><div>127.0.0.1</div></td></tr><tr><td style="font-weight:bold;vertical-align:top;">session_cookie_compression_level</td><td style="vertical-align:top;">:</td><td><div>None</div></td></tr><tr><td style="font-weight:bold;vertical-align:top;">session_cookie_expires</td><td style="vertical-align:top;">:</td><td><div>None</div></td></tr><tr><td style="font-weight:bold;vertical-align:top;">session_data_name</td><td style="vertical-align:top;">:</td><td><div>session_data_sistema_plano_de_contas</div></td></tr><tr><td style="font-weight:bold;vertical-align:top;">session_file</td><td style="vertical-align:top;">:</td><td><div>&lt;open file &#x27;C:\\\\Users\\\\JVM\\\\Documents\\\\assets\\\\web2py\\\\applications\\\\sistema_plano_de_contas\\\\sessions\\\\08a\\\\08a\\\\127.0.0.1-b69b1041-2bdd-4ab5-ac30-291808220555&#x27;, mode &#x27;rb+&#x27; at 0x03F51910&gt;</div></td></tr><tr><td style="font-weight:bold;vertical-align:top;">session_filename</td><td style="vertical-align:top;">:</td><td><div>C:\\Users\\JVM\\Documents\\assets\\web2py\\applications\\sistema_plano_de_contas\\sessions\\127.0.0.1-b69b1041-2bdd-4ab5-ac30-291808220555</div></td></tr><tr><td style="font-weight:bold;vertical-align:top;">session_hash</td><td style="vertical-align:top;">:</td><td><div>a718e9db0748156e8147bd6378ad4a8d</div></td></tr><tr><td style="font-weight:bold;vertical-align:top;">session_id</td><td style="vertical-align:top;">:</td><td><div>127.0.0.1-b69b1041-2bdd-4ab5-ac30-291808220555</div></td></tr><tr><td style="font-weight:bold;vertical-align:top;">session_id_name</td><td style="vertical-align:top;">:</td><td><div>session_id_sistema_plano_de_contas</div></td></tr><tr><td style="font-weight:bold;vertical-align:top;">session_locked</td><td style="vertical-align:top;">:</td><td><div>True</div></td></tr><tr><td style="font-weight:bold;vertical-align:top;">session_masterapp</td><td style="vertical-align:top;">:</td><td><div>sistema_plano_de_contas</div></td></tr><tr><td style="font-weight:bold;vertical-align:top;">session_new</td><td style="vertical-align:top;">:</td><td><div>False</div></td></tr><tr><td style="font-weight:bold;vertical-align:top;">session_storage_type</td><td style="vertical-align:top;">:</td><td><div>file</div></td></tr><tr><td style="font-weight:bold;vertical-align:top;">show_toolbar</td><td style="vertical-align:top;">:</td><td><div>False</div></td></tr><tr><td style="font-weight:bold;vertical-align:top;">status</td><td style="vertical-align:top;">:</td><td><div>200</div></td></tr><tr><td style="font-weight:bold;vertical-align:top;">view</td><td style="vertical-align:top;">:</td><td><div>default/plano_de_contas.html</div></td></tr></table></div>'
tRp269
sS'locals'
p270
(dp271
S'handlers'
p272
S'[<pydal.helpers.classes.TimingHandler object>]'
p273
sS'self'
p274
S'<pydal.adapters.sqlite.SQLite object>'
p275
sg48
S'(\'ALTER TABLE "contas" ADD "movimentacao" INTEGER ...acao_contas" ("id") ON DELETE CASCADE  NOT NULL ;\',)'
p276
sS'handler'
p277
S'<pydal.helpers.classes.TimingHandler object>'
p278
sS'command'
p279
S'\'ALTER TABLE "contas" ADD "movimentacao" INTEGER ...acao_contas" ("id") ON DELETE CASCADE  NOT NULL ;\''
p280
sS'kwargs'
p281
g21
sssS'traceback'
p282
S'Traceback (most recent call last):\n  File "C:\\Users\\JVM\\Documents\\assets\\web2py\\gluon\\restricted.py", line 219, in restricted\n    exec(ccode, environment)\n  File "C:\\Users\\JVM\\Documents\\assets\\web2py\\applications\\sistema_plano_de_contas\\models\\db_models.py", line 11, in <module>\n    ,Field(\'conta_pai\',\'reference contas\')\n  File "C:\\Users\\JVM\\Documents\\assets\\web2py\\gluon\\packages\\dal\\pydal\\base.py", line 592, in define_table\n    table = self.lazy_define_table(tablename, *fields, **kwargs)\n  File "C:\\Users\\JVM\\Documents\\assets\\web2py\\gluon\\packages\\dal\\pydal\\base.py", line 626, in lazy_define_table\n    polymodel=polymodel)\n  File "C:\\Users\\JVM\\Documents\\assets\\web2py\\gluon\\packages\\dal\\pydal\\adapters\\base.py", line 798, in create_table\n    return self.migrator.create_table(*args, **kwargs)\n  File "C:\\Users\\JVM\\Documents\\assets\\web2py\\gluon\\packages\\dal\\pydal\\migrator.py", line 318, in create_table\n    fake_migrate=fake_migrate\n  File "C:\\Users\\JVM\\Documents\\assets\\web2py\\gluon\\packages\\dal\\pydal\\migrator.py", line 451, in migrate_table\n    self.adapter.execute(sub_query)\n  File "C:\\Users\\JVM\\Documents\\assets\\web2py\\gluon\\packages\\dal\\pydal\\adapters\\__init__.py", line 67, in wrap\n    return f(*args, **kwargs)\n  File "C:\\Users\\JVM\\Documents\\assets\\web2py\\gluon\\packages\\dal\\pydal\\adapters\\base.py", line 413, in execute\n    rv = self.cursor.execute(command, *args[1:], **kwargs)\nOperationalError: Cannot add a NOT NULL column with default value NULL\n'
p283
s.